
build/robot.elf:     file format elf32-littlearm

Sections:
Idx Name          Size      VMA       LMA       File off  Algn  Flags
  0 .isr_vector   00000188  08000000  08000000  00008000  2**0  CONTENTS, ALLOC, LOAD, READONLY, DATA
  1 .text         00009354  08000190  08000190  00008190  2**4  CONTENTS, ALLOC, LOAD, READONLY, CODE
  2 .rodata       0000059c  080094e8  080094e8  000114e8  2**3  CONTENTS, ALLOC, LOAD, READONLY, DATA
  3 .init_array   00000004  08009a84  08009a84  00011a84  2**2  CONTENTS, ALLOC, LOAD, DATA
  4 .fini_array   00000004  08009a88  08009a88  00011a88  2**2  CONTENTS, ALLOC, LOAD, DATA
  5 .data         0000021c  20000000  08009a8c  00018000  2**2  CONTENTS, ALLOC, LOAD, DATA
  6 .bss          00015550  20000220  20000220  00018220  2**3  ALLOC
  7 ._user_heap_stack 00000600  20015770  20015770  00018220  2**0  ALLOC
  8 .ARM.attributes 00000030  00000000  00000000  0001821c  2**0  CONTENTS, READONLY
  9 .debug_info   000125a6  00000000  00000000  0001824c  2**0  CONTENTS, READONLY, DEBUGGING
 10 .debug_abbrev 00002e50  00000000  00000000  0002a7f2  2**0  CONTENTS, READONLY, DEBUGGING
 11 .debug_loc    00004ded  00000000  00000000  0002d642  2**0  CONTENTS, READONLY, DEBUGGING
 12 .debug_aranges 00000dd0  00000000  00000000  0003242f  2**0  CONTENTS, READONLY, DEBUGGING
 13 .debug_ranges 00000c38  00000000  00000000  000331ff  2**0  CONTENTS, READONLY, DEBUGGING
 14 .debug_line   00005ec1  00000000  00000000  00033e37  2**0  CONTENTS, READONLY, DEBUGGING
 15 .debug_str    00005dbc  00000000  00000000  00039cf8  2**0  CONTENTS, READONLY, DEBUGGING
 16 .comment      00000070  00000000  00000000  0003fab4  2**0  CONTENTS, READONLY
 17 .debug_frame  000032ec  00000000  00000000  0003fb24  2**2  CONTENTS, READONLY, DEBUGGING

Disassembly of section .text:

08000190 <__do_global_dtors_aux>:
 8000190:	b510      	push	{r4, lr}
 8000192:	4c05      	ldr	r4, [pc, #20]	; (80001a8 <__do_global_dtors_aux+0x18>)
 8000194:	7823      	ldrb	r3, [r4, #0]
 8000196:	b933      	cbnz	r3, 80001a6 <__do_global_dtors_aux+0x16>
 8000198:	4b04      	ldr	r3, [pc, #16]	; (80001ac <__do_global_dtors_aux+0x1c>)
 800019a:	b113      	cbz	r3, 80001a2 <__do_global_dtors_aux+0x12>
 800019c:	4804      	ldr	r0, [pc, #16]	; (80001b0 <__do_global_dtors_aux+0x20>)
 800019e:	f3af 8000 	nop.w
 80001a2:	2301      	movs	r3, #1
 80001a4:	7023      	strb	r3, [r4, #0]
 80001a6:	bd10      	pop	{r4, pc}
 80001a8:	20000220 	.word	0x20000220
 80001ac:	00000000 	.word	0x00000000
 80001b0:	080094cc 	.word	0x080094cc

080001b4 <frame_dummy>:
 80001b4:	b508      	push	{r3, lr}
 80001b6:	4b06      	ldr	r3, [pc, #24]	; (80001d0 <frame_dummy+0x1c>)
 80001b8:	b11b      	cbz	r3, 80001c2 <frame_dummy+0xe>
 80001ba:	4806      	ldr	r0, [pc, #24]	; (80001d4 <frame_dummy+0x20>)
 80001bc:	4906      	ldr	r1, [pc, #24]	; (80001d8 <frame_dummy+0x24>)
 80001be:	f3af 8000 	nop.w
 80001c2:	4806      	ldr	r0, [pc, #24]	; (80001dc <frame_dummy+0x28>)
 80001c4:	6803      	ldr	r3, [r0, #0]
 80001c6:	b113      	cbz	r3, 80001ce <frame_dummy+0x1a>
 80001c8:	4b05      	ldr	r3, [pc, #20]	; (80001e0 <frame_dummy+0x2c>)
 80001ca:	b103      	cbz	r3, 80001ce <frame_dummy+0x1a>
 80001cc:	4798      	blx	r3
 80001ce:	bd08      	pop	{r3, pc}
 80001d0:	00000000 	.word	0x00000000
 80001d4:	080094cc 	.word	0x080094cc
 80001d8:	20000224 	.word	0x20000224
 80001dc:	2000021c 	.word	0x2000021c
 80001e0:	00000000 	.word	0x00000000

080001e4 <__aeabi_drsub>:
 80001e4:	f081 4100 	eor.w	r1, r1, #2147483648	; 0x80000000
 80001e8:	e002      	b.n	80001f0 <__adddf3>
 80001ea:	bf00      	nop

080001ec <__aeabi_dsub>:
 80001ec:	f083 4300 	eor.w	r3, r3, #2147483648	; 0x80000000

080001f0 <__adddf3>:
 80001f0:	b530      	push	{r4, r5, lr}
 80001f2:	ea4f 0441 	mov.w	r4, r1, lsl #1
 80001f6:	ea4f 0543 	mov.w	r5, r3, lsl #1
 80001fa:	ea94 0f05 	teq	r4, r5
 80001fe:	bf08      	it	eq
 8000200:	ea90 0f02 	teqeq	r0, r2
 8000204:	bf1f      	itttt	ne
 8000206:	ea54 0c00 	orrsne.w	ip, r4, r0
 800020a:	ea55 0c02 	orrsne.w	ip, r5, r2
 800020e:	ea7f 5c64 	mvnsne.w	ip, r4, asr #21
 8000212:	ea7f 5c65 	mvnsne.w	ip, r5, asr #21
 8000216:	f000 80e2 	beq.w	80003de <__adddf3+0x1ee>
 800021a:	ea4f 5454 	mov.w	r4, r4, lsr #21
 800021e:	ebd4 5555 	rsbs	r5, r4, r5, lsr #21
 8000222:	bfb8      	it	lt
 8000224:	426d      	neglt	r5, r5
 8000226:	dd0c      	ble.n	8000242 <__adddf3+0x52>
 8000228:	442c      	add	r4, r5
 800022a:	ea80 0202 	eor.w	r2, r0, r2
 800022e:	ea81 0303 	eor.w	r3, r1, r3
 8000232:	ea82 0000 	eor.w	r0, r2, r0
 8000236:	ea83 0101 	eor.w	r1, r3, r1
 800023a:	ea80 0202 	eor.w	r2, r0, r2
 800023e:	ea81 0303 	eor.w	r3, r1, r3
 8000242:	2d36      	cmp	r5, #54	; 0x36
 8000244:	bf88      	it	hi
 8000246:	bd30      	pophi	{r4, r5, pc}
 8000248:	f011 4f00 	tst.w	r1, #2147483648	; 0x80000000
 800024c:	ea4f 3101 	mov.w	r1, r1, lsl #12
 8000250:	f44f 1c80 	mov.w	ip, #1048576	; 0x100000
 8000254:	ea4c 3111 	orr.w	r1, ip, r1, lsr #12
 8000258:	d002      	beq.n	8000260 <__adddf3+0x70>
 800025a:	4240      	negs	r0, r0
 800025c:	eb61 0141 	sbc.w	r1, r1, r1, lsl #1
 8000260:	f013 4f00 	tst.w	r3, #2147483648	; 0x80000000
 8000264:	ea4f 3303 	mov.w	r3, r3, lsl #12
 8000268:	ea4c 3313 	orr.w	r3, ip, r3, lsr #12
 800026c:	d002      	beq.n	8000274 <__adddf3+0x84>
 800026e:	4252      	negs	r2, r2
 8000270:	eb63 0343 	sbc.w	r3, r3, r3, lsl #1
 8000274:	ea94 0f05 	teq	r4, r5
 8000278:	f000 80a7 	beq.w	80003ca <__adddf3+0x1da>
 800027c:	f1a4 0401 	sub.w	r4, r4, #1
 8000280:	f1d5 0e20 	rsbs	lr, r5, #32
 8000284:	db0d      	blt.n	80002a2 <__adddf3+0xb2>
 8000286:	fa02 fc0e 	lsl.w	ip, r2, lr
 800028a:	fa22 f205 	lsr.w	r2, r2, r5
 800028e:	1880      	adds	r0, r0, r2
 8000290:	f141 0100 	adc.w	r1, r1, #0
 8000294:	fa03 f20e 	lsl.w	r2, r3, lr
 8000298:	1880      	adds	r0, r0, r2
 800029a:	fa43 f305 	asr.w	r3, r3, r5
 800029e:	4159      	adcs	r1, r3
 80002a0:	e00e      	b.n	80002c0 <__adddf3+0xd0>
 80002a2:	f1a5 0520 	sub.w	r5, r5, #32
 80002a6:	f10e 0e20 	add.w	lr, lr, #32
 80002aa:	2a01      	cmp	r2, #1
 80002ac:	fa03 fc0e 	lsl.w	ip, r3, lr
 80002b0:	bf28      	it	cs
 80002b2:	f04c 0c02 	orrcs.w	ip, ip, #2
 80002b6:	fa43 f305 	asr.w	r3, r3, r5
 80002ba:	18c0      	adds	r0, r0, r3
 80002bc:	eb51 71e3 	adcs.w	r1, r1, r3, asr #31
 80002c0:	f001 4500 	and.w	r5, r1, #2147483648	; 0x80000000
 80002c4:	d507      	bpl.n	80002d6 <__adddf3+0xe6>
 80002c6:	f04f 0e00 	mov.w	lr, #0
 80002ca:	f1dc 0c00 	rsbs	ip, ip, #0
 80002ce:	eb7e 0000 	sbcs.w	r0, lr, r0
 80002d2:	eb6e 0101 	sbc.w	r1, lr, r1
 80002d6:	f5b1 1f80 	cmp.w	r1, #1048576	; 0x100000
 80002da:	d31b      	bcc.n	8000314 <__adddf3+0x124>
 80002dc:	f5b1 1f00 	cmp.w	r1, #2097152	; 0x200000
 80002e0:	d30c      	bcc.n	80002fc <__adddf3+0x10c>
 80002e2:	0849      	lsrs	r1, r1, #1
 80002e4:	ea5f 0030 	movs.w	r0, r0, rrx
 80002e8:	ea4f 0c3c 	mov.w	ip, ip, rrx
 80002ec:	f104 0401 	add.w	r4, r4, #1
 80002f0:	ea4f 5244 	mov.w	r2, r4, lsl #21
 80002f4:	f512 0f80 	cmn.w	r2, #4194304	; 0x400000
 80002f8:	f080 809a 	bcs.w	8000430 <__adddf3+0x240>
 80002fc:	f1bc 4f00 	cmp.w	ip, #2147483648	; 0x80000000
 8000300:	bf08      	it	eq
 8000302:	ea5f 0c50 	movseq.w	ip, r0, lsr #1
 8000306:	f150 0000 	adcs.w	r0, r0, #0
 800030a:	eb41 5104 	adc.w	r1, r1, r4, lsl #20
 800030e:	ea41 0105 	orr.w	r1, r1, r5
 8000312:	bd30      	pop	{r4, r5, pc}
 8000314:	ea5f 0c4c 	movs.w	ip, ip, lsl #1
 8000318:	4140      	adcs	r0, r0
 800031a:	eb41 0101 	adc.w	r1, r1, r1
 800031e:	f411 1f80 	tst.w	r1, #1048576	; 0x100000
 8000322:	f1a4 0401 	sub.w	r4, r4, #1
 8000326:	d1e9      	bne.n	80002fc <__adddf3+0x10c>
 8000328:	f091 0f00 	teq	r1, #0
 800032c:	bf04      	itt	eq
 800032e:	4601      	moveq	r1, r0
 8000330:	2000      	moveq	r0, #0
 8000332:	fab1 f381 	clz	r3, r1
 8000336:	bf08      	it	eq
 8000338:	3320      	addeq	r3, #32
 800033a:	f1a3 030b 	sub.w	r3, r3, #11
 800033e:	f1b3 0220 	subs.w	r2, r3, #32
 8000342:	da0c      	bge.n	800035e <__adddf3+0x16e>
 8000344:	320c      	adds	r2, #12
 8000346:	dd08      	ble.n	800035a <__adddf3+0x16a>
 8000348:	f102 0c14 	add.w	ip, r2, #20
 800034c:	f1c2 020c 	rsb	r2, r2, #12
 8000350:	fa01 f00c 	lsl.w	r0, r1, ip
 8000354:	fa21 f102 	lsr.w	r1, r1, r2
 8000358:	e00c      	b.n	8000374 <__adddf3+0x184>
 800035a:	f102 0214 	add.w	r2, r2, #20
 800035e:	bfd8      	it	le
 8000360:	f1c2 0c20 	rsble	ip, r2, #32
 8000364:	fa01 f102 	lsl.w	r1, r1, r2
 8000368:	fa20 fc0c 	lsr.w	ip, r0, ip
 800036c:	bfdc      	itt	le
 800036e:	ea41 010c 	orrle.w	r1, r1, ip
 8000372:	4090      	lslle	r0, r2
 8000374:	1ae4      	subs	r4, r4, r3
 8000376:	bfa2      	ittt	ge
 8000378:	eb01 5104 	addge.w	r1, r1, r4, lsl #20
 800037c:	4329      	orrge	r1, r5
 800037e:	bd30      	popge	{r4, r5, pc}
 8000380:	ea6f 0404 	mvn.w	r4, r4
 8000384:	3c1f      	subs	r4, #31
 8000386:	da1c      	bge.n	80003c2 <__adddf3+0x1d2>
 8000388:	340c      	adds	r4, #12
 800038a:	dc0e      	bgt.n	80003aa <__adddf3+0x1ba>
 800038c:	f104 0414 	add.w	r4, r4, #20
 8000390:	f1c4 0220 	rsb	r2, r4, #32
 8000394:	fa20 f004 	lsr.w	r0, r0, r4
 8000398:	fa01 f302 	lsl.w	r3, r1, r2
 800039c:	ea40 0003 	orr.w	r0, r0, r3
 80003a0:	fa21 f304 	lsr.w	r3, r1, r4
 80003a4:	ea45 0103 	orr.w	r1, r5, r3
 80003a8:	bd30      	pop	{r4, r5, pc}
 80003aa:	f1c4 040c 	rsb	r4, r4, #12
 80003ae:	f1c4 0220 	rsb	r2, r4, #32
 80003b2:	fa20 f002 	lsr.w	r0, r0, r2
 80003b6:	fa01 f304 	lsl.w	r3, r1, r4
 80003ba:	ea40 0003 	orr.w	r0, r0, r3
 80003be:	4629      	mov	r1, r5
 80003c0:	bd30      	pop	{r4, r5, pc}
 80003c2:	fa21 f004 	lsr.w	r0, r1, r4
 80003c6:	4629      	mov	r1, r5
 80003c8:	bd30      	pop	{r4, r5, pc}
 80003ca:	f094 0f00 	teq	r4, #0
 80003ce:	f483 1380 	eor.w	r3, r3, #1048576	; 0x100000
 80003d2:	bf06      	itte	eq
 80003d4:	f481 1180 	eoreq.w	r1, r1, #1048576	; 0x100000
 80003d8:	3401      	addeq	r4, #1
 80003da:	3d01      	subne	r5, #1
 80003dc:	e74e      	b.n	800027c <__adddf3+0x8c>
 80003de:	ea7f 5c64 	mvns.w	ip, r4, asr #21
 80003e2:	bf18      	it	ne
 80003e4:	ea7f 5c65 	mvnsne.w	ip, r5, asr #21
 80003e8:	d029      	beq.n	800043e <__adddf3+0x24e>
 80003ea:	ea94 0f05 	teq	r4, r5
 80003ee:	bf08      	it	eq
 80003f0:	ea90 0f02 	teqeq	r0, r2
 80003f4:	d005      	beq.n	8000402 <__adddf3+0x212>
 80003f6:	ea54 0c00 	orrs.w	ip, r4, r0
 80003fa:	bf04      	itt	eq
 80003fc:	4619      	moveq	r1, r3
 80003fe:	4610      	moveq	r0, r2
 8000400:	bd30      	pop	{r4, r5, pc}
 8000402:	ea91 0f03 	teq	r1, r3
 8000406:	bf1e      	ittt	ne
 8000408:	2100      	movne	r1, #0
 800040a:	2000      	movne	r0, #0
 800040c:	bd30      	popne	{r4, r5, pc}
 800040e:	ea5f 5c54 	movs.w	ip, r4, lsr #21
 8000412:	d105      	bne.n	8000420 <__adddf3+0x230>
 8000414:	0040      	lsls	r0, r0, #1
 8000416:	4149      	adcs	r1, r1
 8000418:	bf28      	it	cs
 800041a:	f041 4100 	orrcs.w	r1, r1, #2147483648	; 0x80000000
 800041e:	bd30      	pop	{r4, r5, pc}
 8000420:	f514 0480 	adds.w	r4, r4, #4194304	; 0x400000
 8000424:	bf3c      	itt	cc
 8000426:	f501 1180 	addcc.w	r1, r1, #1048576	; 0x100000
 800042a:	bd30      	popcc	{r4, r5, pc}
 800042c:	f001 4500 	and.w	r5, r1, #2147483648	; 0x80000000
 8000430:	f045 41fe 	orr.w	r1, r5, #2130706432	; 0x7f000000
 8000434:	f441 0170 	orr.w	r1, r1, #15728640	; 0xf00000
 8000438:	f04f 0000 	mov.w	r0, #0
 800043c:	bd30      	pop	{r4, r5, pc}
 800043e:	ea7f 5c64 	mvns.w	ip, r4, asr #21
 8000442:	bf1a      	itte	ne
 8000444:	4619      	movne	r1, r3
 8000446:	4610      	movne	r0, r2
 8000448:	ea7f 5c65 	mvnseq.w	ip, r5, asr #21
 800044c:	bf1c      	itt	ne
 800044e:	460b      	movne	r3, r1
 8000450:	4602      	movne	r2, r0
 8000452:	ea50 3401 	orrs.w	r4, r0, r1, lsl #12
 8000456:	bf06      	itte	eq
 8000458:	ea52 3503 	orrseq.w	r5, r2, r3, lsl #12
 800045c:	ea91 0f03 	teqeq	r1, r3
 8000460:	f441 2100 	orrne.w	r1, r1, #524288	; 0x80000
 8000464:	bd30      	pop	{r4, r5, pc}
 8000466:	bf00      	nop

08000468 <__aeabi_ui2d>:
 8000468:	f090 0f00 	teq	r0, #0
 800046c:	bf04      	itt	eq
 800046e:	2100      	moveq	r1, #0
 8000470:	4770      	bxeq	lr
 8000472:	b530      	push	{r4, r5, lr}
 8000474:	f44f 6480 	mov.w	r4, #1024	; 0x400
 8000478:	f104 0432 	add.w	r4, r4, #50	; 0x32
 800047c:	f04f 0500 	mov.w	r5, #0
 8000480:	f04f 0100 	mov.w	r1, #0
 8000484:	e750      	b.n	8000328 <__adddf3+0x138>
 8000486:	bf00      	nop

08000488 <__aeabi_i2d>:
 8000488:	f090 0f00 	teq	r0, #0
 800048c:	bf04      	itt	eq
 800048e:	2100      	moveq	r1, #0
 8000490:	4770      	bxeq	lr
 8000492:	b530      	push	{r4, r5, lr}
 8000494:	f44f 6480 	mov.w	r4, #1024	; 0x400
 8000498:	f104 0432 	add.w	r4, r4, #50	; 0x32
 800049c:	f010 4500 	ands.w	r5, r0, #2147483648	; 0x80000000
 80004a0:	bf48      	it	mi
 80004a2:	4240      	negmi	r0, r0
 80004a4:	f04f 0100 	mov.w	r1, #0
 80004a8:	e73e      	b.n	8000328 <__adddf3+0x138>
 80004aa:	bf00      	nop

080004ac <__aeabi_f2d>:
 80004ac:	0042      	lsls	r2, r0, #1
 80004ae:	ea4f 01e2 	mov.w	r1, r2, asr #3
 80004b2:	ea4f 0131 	mov.w	r1, r1, rrx
 80004b6:	ea4f 7002 	mov.w	r0, r2, lsl #28
 80004ba:	bf1f      	itttt	ne
 80004bc:	f012 437f 	andsne.w	r3, r2, #4278190080	; 0xff000000
 80004c0:	f093 4f7f 	teqne	r3, #4278190080	; 0xff000000
 80004c4:	f081 5160 	eorne.w	r1, r1, #939524096	; 0x38000000
 80004c8:	4770      	bxne	lr
 80004ca:	f092 0f00 	teq	r2, #0
 80004ce:	bf14      	ite	ne
 80004d0:	f093 4f7f 	teqne	r3, #4278190080	; 0xff000000
 80004d4:	4770      	bxeq	lr
 80004d6:	b530      	push	{r4, r5, lr}
 80004d8:	f44f 7460 	mov.w	r4, #896	; 0x380
 80004dc:	f001 4500 	and.w	r5, r1, #2147483648	; 0x80000000
 80004e0:	f021 4100 	bic.w	r1, r1, #2147483648	; 0x80000000
 80004e4:	e720      	b.n	8000328 <__adddf3+0x138>
 80004e6:	bf00      	nop

080004e8 <__aeabi_ul2d>:
 80004e8:	ea50 0201 	orrs.w	r2, r0, r1
 80004ec:	bf08      	it	eq
 80004ee:	4770      	bxeq	lr
 80004f0:	b530      	push	{r4, r5, lr}
 80004f2:	f04f 0500 	mov.w	r5, #0
 80004f6:	e00a      	b.n	800050e <__aeabi_l2d+0x16>

080004f8 <__aeabi_l2d>:
 80004f8:	ea50 0201 	orrs.w	r2, r0, r1
 80004fc:	bf08      	it	eq
 80004fe:	4770      	bxeq	lr
 8000500:	b530      	push	{r4, r5, lr}
 8000502:	f011 4500 	ands.w	r5, r1, #2147483648	; 0x80000000
 8000506:	d502      	bpl.n	800050e <__aeabi_l2d+0x16>
 8000508:	4240      	negs	r0, r0
 800050a:	eb61 0141 	sbc.w	r1, r1, r1, lsl #1
 800050e:	f44f 6480 	mov.w	r4, #1024	; 0x400
 8000512:	f104 0432 	add.w	r4, r4, #50	; 0x32
 8000516:	ea5f 5c91 	movs.w	ip, r1, lsr #22
 800051a:	f43f aedc 	beq.w	80002d6 <__adddf3+0xe6>
 800051e:	f04f 0203 	mov.w	r2, #3
 8000522:	ea5f 0cdc 	movs.w	ip, ip, lsr #3
 8000526:	bf18      	it	ne
 8000528:	3203      	addne	r2, #3
 800052a:	ea5f 0cdc 	movs.w	ip, ip, lsr #3
 800052e:	bf18      	it	ne
 8000530:	3203      	addne	r2, #3
 8000532:	eb02 02dc 	add.w	r2, r2, ip, lsr #3
 8000536:	f1c2 0320 	rsb	r3, r2, #32
 800053a:	fa00 fc03 	lsl.w	ip, r0, r3
 800053e:	fa20 f002 	lsr.w	r0, r0, r2
 8000542:	fa01 fe03 	lsl.w	lr, r1, r3
 8000546:	ea40 000e 	orr.w	r0, r0, lr
 800054a:	fa21 f102 	lsr.w	r1, r1, r2
 800054e:	4414      	add	r4, r2
 8000550:	e6c1      	b.n	80002d6 <__adddf3+0xe6>
 8000552:	bf00      	nop

08000554 <__aeabi_dmul>:
 8000554:	b570      	push	{r4, r5, r6, lr}
 8000556:	f04f 0cff 	mov.w	ip, #255	; 0xff
 800055a:	f44c 6ce0 	orr.w	ip, ip, #1792	; 0x700
 800055e:	ea1c 5411 	ands.w	r4, ip, r1, lsr #20
 8000562:	bf1d      	ittte	ne
 8000564:	ea1c 5513 	andsne.w	r5, ip, r3, lsr #20
 8000568:	ea94 0f0c 	teqne	r4, ip
 800056c:	ea95 0f0c 	teqne	r5, ip
 8000570:	f000 f8de 	bleq	8000730 <__aeabi_dmul+0x1dc>
 8000574:	442c      	add	r4, r5
 8000576:	ea81 0603 	eor.w	r6, r1, r3
 800057a:	ea21 514c 	bic.w	r1, r1, ip, lsl #21
 800057e:	ea23 534c 	bic.w	r3, r3, ip, lsl #21
 8000582:	ea50 3501 	orrs.w	r5, r0, r1, lsl #12
 8000586:	bf18      	it	ne
 8000588:	ea52 3503 	orrsne.w	r5, r2, r3, lsl #12
 800058c:	f441 1180 	orr.w	r1, r1, #1048576	; 0x100000
 8000590:	f443 1380 	orr.w	r3, r3, #1048576	; 0x100000
 8000594:	d038      	beq.n	8000608 <__aeabi_dmul+0xb4>
 8000596:	fba0 ce02 	umull	ip, lr, r0, r2
 800059a:	f04f 0500 	mov.w	r5, #0
 800059e:	fbe1 e502 	umlal	lr, r5, r1, r2
 80005a2:	f006 4200 	and.w	r2, r6, #2147483648	; 0x80000000
 80005a6:	fbe0 e503 	umlal	lr, r5, r0, r3
 80005aa:	f04f 0600 	mov.w	r6, #0
 80005ae:	fbe1 5603 	umlal	r5, r6, r1, r3
 80005b2:	f09c 0f00 	teq	ip, #0
 80005b6:	bf18      	it	ne
 80005b8:	f04e 0e01 	orrne.w	lr, lr, #1
 80005bc:	f1a4 04ff 	sub.w	r4, r4, #255	; 0xff
 80005c0:	f5b6 7f00 	cmp.w	r6, #512	; 0x200
 80005c4:	f564 7440 	sbc.w	r4, r4, #768	; 0x300
 80005c8:	d204      	bcs.n	80005d4 <__aeabi_dmul+0x80>
 80005ca:	ea5f 0e4e 	movs.w	lr, lr, lsl #1
 80005ce:	416d      	adcs	r5, r5
 80005d0:	eb46 0606 	adc.w	r6, r6, r6
 80005d4:	ea42 21c6 	orr.w	r1, r2, r6, lsl #11
 80005d8:	ea41 5155 	orr.w	r1, r1, r5, lsr #21
 80005dc:	ea4f 20c5 	mov.w	r0, r5, lsl #11
 80005e0:	ea40 505e 	orr.w	r0, r0, lr, lsr #21
 80005e4:	ea4f 2ece 	mov.w	lr, lr, lsl #11
 80005e8:	f1b4 0cfd 	subs.w	ip, r4, #253	; 0xfd
 80005ec:	bf88      	it	hi
 80005ee:	f5bc 6fe0 	cmphi.w	ip, #1792	; 0x700
 80005f2:	d81e      	bhi.n	8000632 <__aeabi_dmul+0xde>
 80005f4:	f1be 4f00 	cmp.w	lr, #2147483648	; 0x80000000
 80005f8:	bf08      	it	eq
 80005fa:	ea5f 0e50 	movseq.w	lr, r0, lsr #1
 80005fe:	f150 0000 	adcs.w	r0, r0, #0
 8000602:	eb41 5104 	adc.w	r1, r1, r4, lsl #20
 8000606:	bd70      	pop	{r4, r5, r6, pc}
 8000608:	f006 4600 	and.w	r6, r6, #2147483648	; 0x80000000
 800060c:	ea46 0101 	orr.w	r1, r6, r1
 8000610:	ea40 0002 	orr.w	r0, r0, r2
 8000614:	ea81 0103 	eor.w	r1, r1, r3
 8000618:	ebb4 045c 	subs.w	r4, r4, ip, lsr #1
 800061c:	bfc2      	ittt	gt
 800061e:	ebd4 050c 	rsbsgt	r5, r4, ip
 8000622:	ea41 5104 	orrgt.w	r1, r1, r4, lsl #20
 8000626:	bd70      	popgt	{r4, r5, r6, pc}
 8000628:	f441 1180 	orr.w	r1, r1, #1048576	; 0x100000
 800062c:	f04f 0e00 	mov.w	lr, #0
 8000630:	3c01      	subs	r4, #1
 8000632:	f300 80ab 	bgt.w	800078c <__aeabi_dmul+0x238>
 8000636:	f114 0f36 	cmn.w	r4, #54	; 0x36
 800063a:	bfde      	ittt	le
 800063c:	2000      	movle	r0, #0
 800063e:	f001 4100 	andle.w	r1, r1, #2147483648	; 0x80000000
 8000642:	bd70      	pople	{r4, r5, r6, pc}
 8000644:	f1c4 0400 	rsb	r4, r4, #0
 8000648:	3c20      	subs	r4, #32
 800064a:	da35      	bge.n	80006b8 <__aeabi_dmul+0x164>
 800064c:	340c      	adds	r4, #12
 800064e:	dc1b      	bgt.n	8000688 <__aeabi_dmul+0x134>
 8000650:	f104 0414 	add.w	r4, r4, #20
 8000654:	f1c4 0520 	rsb	r5, r4, #32
 8000658:	fa00 f305 	lsl.w	r3, r0, r5
 800065c:	fa20 f004 	lsr.w	r0, r0, r4
 8000660:	fa01 f205 	lsl.w	r2, r1, r5
 8000664:	ea40 0002 	orr.w	r0, r0, r2
 8000668:	f001 4200 	and.w	r2, r1, #2147483648	; 0x80000000
 800066c:	f021 4100 	bic.w	r1, r1, #2147483648	; 0x80000000
 8000670:	eb10 70d3 	adds.w	r0, r0, r3, lsr #31
 8000674:	fa21 f604 	lsr.w	r6, r1, r4
 8000678:	eb42 0106 	adc.w	r1, r2, r6
 800067c:	ea5e 0e43 	orrs.w	lr, lr, r3, lsl #1
 8000680:	bf08      	it	eq
 8000682:	ea20 70d3 	biceq.w	r0, r0, r3, lsr #31
 8000686:	bd70      	pop	{r4, r5, r6, pc}
 8000688:	f1c4 040c 	rsb	r4, r4, #12
 800068c:	f1c4 0520 	rsb	r5, r4, #32
 8000690:	fa00 f304 	lsl.w	r3, r0, r4
 8000694:	fa20 f005 	lsr.w	r0, r0, r5
 8000698:	fa01 f204 	lsl.w	r2, r1, r4
 800069c:	ea40 0002 	orr.w	r0, r0, r2
 80006a0:	f001 4100 	and.w	r1, r1, #2147483648	; 0x80000000
 80006a4:	eb10 70d3 	adds.w	r0, r0, r3, lsr #31
 80006a8:	f141 0100 	adc.w	r1, r1, #0
 80006ac:	ea5e 0e43 	orrs.w	lr, lr, r3, lsl #1
 80006b0:	bf08      	it	eq
 80006b2:	ea20 70d3 	biceq.w	r0, r0, r3, lsr #31
 80006b6:	bd70      	pop	{r4, r5, r6, pc}
 80006b8:	f1c4 0520 	rsb	r5, r4, #32
 80006bc:	fa00 f205 	lsl.w	r2, r0, r5
 80006c0:	ea4e 0e02 	orr.w	lr, lr, r2
 80006c4:	fa20 f304 	lsr.w	r3, r0, r4
 80006c8:	fa01 f205 	lsl.w	r2, r1, r5
 80006cc:	ea43 0302 	orr.w	r3, r3, r2
 80006d0:	fa21 f004 	lsr.w	r0, r1, r4
 80006d4:	f001 4100 	and.w	r1, r1, #2147483648	; 0x80000000
 80006d8:	fa21 f204 	lsr.w	r2, r1, r4
 80006dc:	ea20 0002 	bic.w	r0, r0, r2
 80006e0:	eb00 70d3 	add.w	r0, r0, r3, lsr #31
 80006e4:	ea5e 0e43 	orrs.w	lr, lr, r3, lsl #1
 80006e8:	bf08      	it	eq
 80006ea:	ea20 70d3 	biceq.w	r0, r0, r3, lsr #31
 80006ee:	bd70      	pop	{r4, r5, r6, pc}
 80006f0:	f094 0f00 	teq	r4, #0
 80006f4:	d10f      	bne.n	8000716 <__aeabi_dmul+0x1c2>
 80006f6:	f001 4600 	and.w	r6, r1, #2147483648	; 0x80000000
 80006fa:	0040      	lsls	r0, r0, #1
 80006fc:	eb41 0101 	adc.w	r1, r1, r1
 8000700:	f411 1f80 	tst.w	r1, #1048576	; 0x100000
 8000704:	bf08      	it	eq
 8000706:	3c01      	subeq	r4, #1
 8000708:	d0f7      	beq.n	80006fa <__aeabi_dmul+0x1a6>
 800070a:	ea41 0106 	orr.w	r1, r1, r6
 800070e:	f095 0f00 	teq	r5, #0
 8000712:	bf18      	it	ne
 8000714:	4770      	bxne	lr
 8000716:	f003 4600 	and.w	r6, r3, #2147483648	; 0x80000000
 800071a:	0052      	lsls	r2, r2, #1
 800071c:	eb43 0303 	adc.w	r3, r3, r3
 8000720:	f413 1f80 	tst.w	r3, #1048576	; 0x100000
 8000724:	bf08      	it	eq
 8000726:	3d01      	subeq	r5, #1
 8000728:	d0f7      	beq.n	800071a <__aeabi_dmul+0x1c6>
 800072a:	ea43 0306 	orr.w	r3, r3, r6
 800072e:	4770      	bx	lr
 8000730:	ea94 0f0c 	teq	r4, ip
 8000734:	ea0c 5513 	and.w	r5, ip, r3, lsr #20
 8000738:	bf18      	it	ne
 800073a:	ea95 0f0c 	teqne	r5, ip
 800073e:	d00c      	beq.n	800075a <__aeabi_dmul+0x206>
 8000740:	ea50 0641 	orrs.w	r6, r0, r1, lsl #1
 8000744:	bf18      	it	ne
 8000746:	ea52 0643 	orrsne.w	r6, r2, r3, lsl #1
 800074a:	d1d1      	bne.n	80006f0 <__aeabi_dmul+0x19c>
 800074c:	ea81 0103 	eor.w	r1, r1, r3
 8000750:	f001 4100 	and.w	r1, r1, #2147483648	; 0x80000000
 8000754:	f04f 0000 	mov.w	r0, #0
 8000758:	bd70      	pop	{r4, r5, r6, pc}
 800075a:	ea50 0641 	orrs.w	r6, r0, r1, lsl #1
 800075e:	bf06      	itte	eq
 8000760:	4610      	moveq	r0, r2
 8000762:	4619      	moveq	r1, r3
 8000764:	ea52 0643 	orrsne.w	r6, r2, r3, lsl #1
 8000768:	d019      	beq.n	800079e <__aeabi_dmul+0x24a>
 800076a:	ea94 0f0c 	teq	r4, ip
 800076e:	d102      	bne.n	8000776 <__aeabi_dmul+0x222>
 8000770:	ea50 3601 	orrs.w	r6, r0, r1, lsl #12
 8000774:	d113      	bne.n	800079e <__aeabi_dmul+0x24a>
 8000776:	ea95 0f0c 	teq	r5, ip
 800077a:	d105      	bne.n	8000788 <__aeabi_dmul+0x234>
 800077c:	ea52 3603 	orrs.w	r6, r2, r3, lsl #12
 8000780:	bf1c      	itt	ne
 8000782:	4610      	movne	r0, r2
 8000784:	4619      	movne	r1, r3
 8000786:	d10a      	bne.n	800079e <__aeabi_dmul+0x24a>
 8000788:	ea81 0103 	eor.w	r1, r1, r3
 800078c:	f001 4100 	and.w	r1, r1, #2147483648	; 0x80000000
 8000790:	f041 41fe 	orr.w	r1, r1, #2130706432	; 0x7f000000
 8000794:	f441 0170 	orr.w	r1, r1, #15728640	; 0xf00000
 8000798:	f04f 0000 	mov.w	r0, #0
 800079c:	bd70      	pop	{r4, r5, r6, pc}
 800079e:	f041 41fe 	orr.w	r1, r1, #2130706432	; 0x7f000000
 80007a2:	f441 0178 	orr.w	r1, r1, #16252928	; 0xf80000
 80007a6:	bd70      	pop	{r4, r5, r6, pc}

080007a8 <__aeabi_ddiv>:
 80007a8:	b570      	push	{r4, r5, r6, lr}
 80007aa:	f04f 0cff 	mov.w	ip, #255	; 0xff
 80007ae:	f44c 6ce0 	orr.w	ip, ip, #1792	; 0x700
 80007b2:	ea1c 5411 	ands.w	r4, ip, r1, lsr #20
 80007b6:	bf1d      	ittte	ne
 80007b8:	ea1c 5513 	andsne.w	r5, ip, r3, lsr #20
 80007bc:	ea94 0f0c 	teqne	r4, ip
 80007c0:	ea95 0f0c 	teqne	r5, ip
 80007c4:	f000 f8a7 	bleq	8000916 <__aeabi_ddiv+0x16e>
 80007c8:	eba4 0405 	sub.w	r4, r4, r5
 80007cc:	ea81 0e03 	eor.w	lr, r1, r3
 80007d0:	ea52 3503 	orrs.w	r5, r2, r3, lsl #12
 80007d4:	ea4f 3101 	mov.w	r1, r1, lsl #12
 80007d8:	f000 8088 	beq.w	80008ec <__aeabi_ddiv+0x144>
 80007dc:	ea4f 3303 	mov.w	r3, r3, lsl #12
 80007e0:	f04f 5580 	mov.w	r5, #268435456	; 0x10000000
 80007e4:	ea45 1313 	orr.w	r3, r5, r3, lsr #4
 80007e8:	ea43 6312 	orr.w	r3, r3, r2, lsr #24
 80007ec:	ea4f 2202 	mov.w	r2, r2, lsl #8
 80007f0:	ea45 1511 	orr.w	r5, r5, r1, lsr #4
 80007f4:	ea45 6510 	orr.w	r5, r5, r0, lsr #24
 80007f8:	ea4f 2600 	mov.w	r6, r0, lsl #8
 80007fc:	f00e 4100 	and.w	r1, lr, #2147483648	; 0x80000000
 8000800:	429d      	cmp	r5, r3
 8000802:	bf08      	it	eq
 8000804:	4296      	cmpeq	r6, r2
 8000806:	f144 04fd 	adc.w	r4, r4, #253	; 0xfd
 800080a:	f504 7440 	add.w	r4, r4, #768	; 0x300
 800080e:	d202      	bcs.n	8000816 <__aeabi_ddiv+0x6e>
 8000810:	085b      	lsrs	r3, r3, #1
 8000812:	ea4f 0232 	mov.w	r2, r2, rrx
 8000816:	1ab6      	subs	r6, r6, r2
 8000818:	eb65 0503 	sbc.w	r5, r5, r3
 800081c:	085b      	lsrs	r3, r3, #1
 800081e:	ea4f 0232 	mov.w	r2, r2, rrx
 8000822:	f44f 1080 	mov.w	r0, #1048576	; 0x100000
 8000826:	f44f 2c00 	mov.w	ip, #524288	; 0x80000
 800082a:	ebb6 0e02 	subs.w	lr, r6, r2
 800082e:	eb75 0e03 	sbcs.w	lr, r5, r3
 8000832:	bf22      	ittt	cs
 8000834:	1ab6      	subcs	r6, r6, r2
 8000836:	4675      	movcs	r5, lr
 8000838:	ea40 000c 	orrcs.w	r0, r0, ip
 800083c:	085b      	lsrs	r3, r3, #1
 800083e:	ea4f 0232 	mov.w	r2, r2, rrx
 8000842:	ebb6 0e02 	subs.w	lr, r6, r2
 8000846:	eb75 0e03 	sbcs.w	lr, r5, r3
 800084a:	bf22      	ittt	cs
 800084c:	1ab6      	subcs	r6, r6, r2
 800084e:	4675      	movcs	r5, lr
 8000850:	ea40 005c 	orrcs.w	r0, r0, ip, lsr #1
 8000854:	085b      	lsrs	r3, r3, #1
 8000856:	ea4f 0232 	mov.w	r2, r2, rrx
 800085a:	ebb6 0e02 	subs.w	lr, r6, r2
 800085e:	eb75 0e03 	sbcs.w	lr, r5, r3
 8000862:	bf22      	ittt	cs
 8000864:	1ab6      	subcs	r6, r6, r2
 8000866:	4675      	movcs	r5, lr
 8000868:	ea40 009c 	orrcs.w	r0, r0, ip, lsr #2
 800086c:	085b      	lsrs	r3, r3, #1
 800086e:	ea4f 0232 	mov.w	r2, r2, rrx
 8000872:	ebb6 0e02 	subs.w	lr, r6, r2
 8000876:	eb75 0e03 	sbcs.w	lr, r5, r3
 800087a:	bf22      	ittt	cs
 800087c:	1ab6      	subcs	r6, r6, r2
 800087e:	4675      	movcs	r5, lr
 8000880:	ea40 00dc 	orrcs.w	r0, r0, ip, lsr #3
 8000884:	ea55 0e06 	orrs.w	lr, r5, r6
 8000888:	d018      	beq.n	80008bc <__aeabi_ddiv+0x114>
 800088a:	ea4f 1505 	mov.w	r5, r5, lsl #4
 800088e:	ea45 7516 	orr.w	r5, r5, r6, lsr #28
 8000892:	ea4f 1606 	mov.w	r6, r6, lsl #4
 8000896:	ea4f 03c3 	mov.w	r3, r3, lsl #3
 800089a:	ea43 7352 	orr.w	r3, r3, r2, lsr #29
 800089e:	ea4f 02c2 	mov.w	r2, r2, lsl #3
 80008a2:	ea5f 1c1c 	movs.w	ip, ip, lsr #4
 80008a6:	d1c0      	bne.n	800082a <__aeabi_ddiv+0x82>
 80008a8:	f411 1f80 	tst.w	r1, #1048576	; 0x100000
 80008ac:	d10b      	bne.n	80008c6 <__aeabi_ddiv+0x11e>
 80008ae:	ea41 0100 	orr.w	r1, r1, r0
 80008b2:	f04f 0000 	mov.w	r0, #0
 80008b6:	f04f 4c00 	mov.w	ip, #2147483648	; 0x80000000
 80008ba:	e7b6      	b.n	800082a <__aeabi_ddiv+0x82>
 80008bc:	f411 1f80 	tst.w	r1, #1048576	; 0x100000
 80008c0:	bf04      	itt	eq
 80008c2:	4301      	orreq	r1, r0
 80008c4:	2000      	moveq	r0, #0
 80008c6:	f1b4 0cfd 	subs.w	ip, r4, #253	; 0xfd
 80008ca:	bf88      	it	hi
 80008cc:	f5bc 6fe0 	cmphi.w	ip, #1792	; 0x700
 80008d0:	f63f aeaf 	bhi.w	8000632 <__aeabi_dmul+0xde>
 80008d4:	ebb5 0c03 	subs.w	ip, r5, r3
 80008d8:	bf04      	itt	eq
 80008da:	ebb6 0c02 	subseq.w	ip, r6, r2
 80008de:	ea5f 0c50 	movseq.w	ip, r0, lsr #1
 80008e2:	f150 0000 	adcs.w	r0, r0, #0
 80008e6:	eb41 5104 	adc.w	r1, r1, r4, lsl #20
 80008ea:	bd70      	pop	{r4, r5, r6, pc}
 80008ec:	f00e 4e00 	and.w	lr, lr, #2147483648	; 0x80000000
 80008f0:	ea4e 3111 	orr.w	r1, lr, r1, lsr #12
 80008f4:	eb14 045c 	adds.w	r4, r4, ip, lsr #1
 80008f8:	bfc2      	ittt	gt
 80008fa:	ebd4 050c 	rsbsgt	r5, r4, ip
 80008fe:	ea41 5104 	orrgt.w	r1, r1, r4, lsl #20
 8000902:	bd70      	popgt	{r4, r5, r6, pc}
 8000904:	f441 1180 	orr.w	r1, r1, #1048576	; 0x100000
 8000908:	f04f 0e00 	mov.w	lr, #0
 800090c:	3c01      	subs	r4, #1
 800090e:	e690      	b.n	8000632 <__aeabi_dmul+0xde>
 8000910:	ea45 0e06 	orr.w	lr, r5, r6
 8000914:	e68d      	b.n	8000632 <__aeabi_dmul+0xde>
 8000916:	ea0c 5513 	and.w	r5, ip, r3, lsr #20
 800091a:	ea94 0f0c 	teq	r4, ip
 800091e:	bf08      	it	eq
 8000920:	ea95 0f0c 	teqeq	r5, ip
 8000924:	f43f af3b 	beq.w	800079e <__aeabi_dmul+0x24a>
 8000928:	ea94 0f0c 	teq	r4, ip
 800092c:	d10a      	bne.n	8000944 <__aeabi_ddiv+0x19c>
 800092e:	ea50 3401 	orrs.w	r4, r0, r1, lsl #12
 8000932:	f47f af34 	bne.w	800079e <__aeabi_dmul+0x24a>
 8000936:	ea95 0f0c 	teq	r5, ip
 800093a:	f47f af25 	bne.w	8000788 <__aeabi_dmul+0x234>
 800093e:	4610      	mov	r0, r2
 8000940:	4619      	mov	r1, r3
 8000942:	e72c      	b.n	800079e <__aeabi_dmul+0x24a>
 8000944:	ea95 0f0c 	teq	r5, ip
 8000948:	d106      	bne.n	8000958 <__aeabi_ddiv+0x1b0>
 800094a:	ea52 3503 	orrs.w	r5, r2, r3, lsl #12
 800094e:	f43f aefd 	beq.w	800074c <__aeabi_dmul+0x1f8>
 8000952:	4610      	mov	r0, r2
 8000954:	4619      	mov	r1, r3
 8000956:	e722      	b.n	800079e <__aeabi_dmul+0x24a>
 8000958:	ea50 0641 	orrs.w	r6, r0, r1, lsl #1
 800095c:	bf18      	it	ne
 800095e:	ea52 0643 	orrsne.w	r6, r2, r3, lsl #1
 8000962:	f47f aec5 	bne.w	80006f0 <__aeabi_dmul+0x19c>
 8000966:	ea50 0441 	orrs.w	r4, r0, r1, lsl #1
 800096a:	f47f af0d 	bne.w	8000788 <__aeabi_dmul+0x234>
 800096e:	ea52 0543 	orrs.w	r5, r2, r3, lsl #1
 8000972:	f47f aeeb 	bne.w	800074c <__aeabi_dmul+0x1f8>
 8000976:	e712      	b.n	800079e <__aeabi_dmul+0x24a>

08000978 <__aeabi_d2iz>:
 8000978:	ea4f 0241 	mov.w	r2, r1, lsl #1
 800097c:	f512 1200 	adds.w	r2, r2, #2097152	; 0x200000
 8000980:	d215      	bcs.n	80009ae <__aeabi_d2iz+0x36>
 8000982:	d511      	bpl.n	80009a8 <__aeabi_d2iz+0x30>
 8000984:	f46f 7378 	mvn.w	r3, #992	; 0x3e0
 8000988:	ebb3 5262 	subs.w	r2, r3, r2, asr #21
 800098c:	d912      	bls.n	80009b4 <__aeabi_d2iz+0x3c>
 800098e:	ea4f 23c1 	mov.w	r3, r1, lsl #11
 8000992:	f043 4300 	orr.w	r3, r3, #2147483648	; 0x80000000
 8000996:	ea43 5350 	orr.w	r3, r3, r0, lsr #21
 800099a:	f011 4f00 	tst.w	r1, #2147483648	; 0x80000000
 800099e:	fa23 f002 	lsr.w	r0, r3, r2
 80009a2:	bf18      	it	ne
 80009a4:	4240      	negne	r0, r0
 80009a6:	4770      	bx	lr
 80009a8:	f04f 0000 	mov.w	r0, #0
 80009ac:	4770      	bx	lr
 80009ae:	ea50 3001 	orrs.w	r0, r0, r1, lsl #12
 80009b2:	d105      	bne.n	80009c0 <__aeabi_d2iz+0x48>
 80009b4:	f011 4000 	ands.w	r0, r1, #2147483648	; 0x80000000
 80009b8:	bf08      	it	eq
 80009ba:	f06f 4000 	mvneq.w	r0, #2147483648	; 0x80000000
 80009be:	4770      	bx	lr
 80009c0:	f04f 0000 	mov.w	r0, #0
 80009c4:	4770      	bx	lr
 80009c6:	bf00      	nop

080009c8 <__gedf2>:
 80009c8:	f04f 3cff 	mov.w	ip, #4294967295	; 0xffffffff
 80009cc:	e006      	b.n	80009dc <__cmpdf2+0x4>
 80009ce:	bf00      	nop

080009d0 <__ledf2>:
 80009d0:	f04f 0c01 	mov.w	ip, #1
 80009d4:	e002      	b.n	80009dc <__cmpdf2+0x4>
 80009d6:	bf00      	nop

080009d8 <__cmpdf2>:
 80009d8:	f04f 0c01 	mov.w	ip, #1
 80009dc:	f84d cd04 	str.w	ip, [sp, #-4]!
 80009e0:	ea4f 0c41 	mov.w	ip, r1, lsl #1
 80009e4:	ea7f 5c6c 	mvns.w	ip, ip, asr #21
 80009e8:	ea4f 0c43 	mov.w	ip, r3, lsl #1
 80009ec:	bf18      	it	ne
 80009ee:	ea7f 5c6c 	mvnsne.w	ip, ip, asr #21
 80009f2:	d01b      	beq.n	8000a2c <__cmpdf2+0x54>
 80009f4:	b001      	add	sp, #4
 80009f6:	ea50 0c41 	orrs.w	ip, r0, r1, lsl #1
 80009fa:	bf0c      	ite	eq
 80009fc:	ea52 0c43 	orrseq.w	ip, r2, r3, lsl #1
 8000a00:	ea91 0f03 	teqne	r1, r3
 8000a04:	bf02      	ittt	eq
 8000a06:	ea90 0f02 	teqeq	r0, r2
 8000a0a:	2000      	moveq	r0, #0
 8000a0c:	4770      	bxeq	lr
 8000a0e:	f110 0f00 	cmn.w	r0, #0
 8000a12:	ea91 0f03 	teq	r1, r3
 8000a16:	bf58      	it	pl
 8000a18:	4299      	cmppl	r1, r3
 8000a1a:	bf08      	it	eq
 8000a1c:	4290      	cmpeq	r0, r2
 8000a1e:	bf2c      	ite	cs
 8000a20:	17d8      	asrcs	r0, r3, #31
 8000a22:	ea6f 70e3 	mvncc.w	r0, r3, asr #31
 8000a26:	f040 0001 	orr.w	r0, r0, #1
 8000a2a:	4770      	bx	lr
 8000a2c:	ea4f 0c41 	mov.w	ip, r1, lsl #1
 8000a30:	ea7f 5c6c 	mvns.w	ip, ip, asr #21
 8000a34:	d102      	bne.n	8000a3c <__cmpdf2+0x64>
 8000a36:	ea50 3c01 	orrs.w	ip, r0, r1, lsl #12
 8000a3a:	d107      	bne.n	8000a4c <__cmpdf2+0x74>
 8000a3c:	ea4f 0c43 	mov.w	ip, r3, lsl #1
 8000a40:	ea7f 5c6c 	mvns.w	ip, ip, asr #21
 8000a44:	d1d6      	bne.n	80009f4 <__cmpdf2+0x1c>
 8000a46:	ea52 3c03 	orrs.w	ip, r2, r3, lsl #12
 8000a4a:	d0d3      	beq.n	80009f4 <__cmpdf2+0x1c>
 8000a4c:	f85d 0b04 	ldr.w	r0, [sp], #4
 8000a50:	4770      	bx	lr
 8000a52:	bf00      	nop

08000a54 <__aeabi_cdrcmple>:
 8000a54:	4684      	mov	ip, r0
 8000a56:	4610      	mov	r0, r2
 8000a58:	4662      	mov	r2, ip
 8000a5a:	468c      	mov	ip, r1
 8000a5c:	4619      	mov	r1, r3
 8000a5e:	4663      	mov	r3, ip
 8000a60:	e000      	b.n	8000a64 <__aeabi_cdcmpeq>
 8000a62:	bf00      	nop

08000a64 <__aeabi_cdcmpeq>:
 8000a64:	b501      	push	{r0, lr}
 8000a66:	f7ff ffb7 	bl	80009d8 <__cmpdf2>
 8000a6a:	2800      	cmp	r0, #0
 8000a6c:	bf48      	it	mi
 8000a6e:	f110 0f00 	cmnmi.w	r0, #0
 8000a72:	bd01      	pop	{r0, pc}

08000a74 <__aeabi_dcmpeq>:
 8000a74:	f84d ed08 	str.w	lr, [sp, #-8]!
 8000a78:	f7ff fff4 	bl	8000a64 <__aeabi_cdcmpeq>
 8000a7c:	bf0c      	ite	eq
 8000a7e:	2001      	moveq	r0, #1
 8000a80:	2000      	movne	r0, #0
 8000a82:	f85d fb08 	ldr.w	pc, [sp], #8
 8000a86:	bf00      	nop

08000a88 <__aeabi_dcmplt>:
 8000a88:	f84d ed08 	str.w	lr, [sp, #-8]!
 8000a8c:	f7ff ffea 	bl	8000a64 <__aeabi_cdcmpeq>
 8000a90:	bf34      	ite	cc
 8000a92:	2001      	movcc	r0, #1
 8000a94:	2000      	movcs	r0, #0
 8000a96:	f85d fb08 	ldr.w	pc, [sp], #8
 8000a9a:	bf00      	nop

08000a9c <__aeabi_dcmple>:
 8000a9c:	f84d ed08 	str.w	lr, [sp, #-8]!
 8000aa0:	f7ff ffe0 	bl	8000a64 <__aeabi_cdcmpeq>
 8000aa4:	bf94      	ite	ls
 8000aa6:	2001      	movls	r0, #1
 8000aa8:	2000      	movhi	r0, #0
 8000aaa:	f85d fb08 	ldr.w	pc, [sp], #8
 8000aae:	bf00      	nop

08000ab0 <__aeabi_dcmpge>:
 8000ab0:	f84d ed08 	str.w	lr, [sp, #-8]!
 8000ab4:	f7ff ffce 	bl	8000a54 <__aeabi_cdrcmple>
 8000ab8:	bf94      	ite	ls
 8000aba:	2001      	movls	r0, #1
 8000abc:	2000      	movhi	r0, #0
 8000abe:	f85d fb08 	ldr.w	pc, [sp], #8
 8000ac2:	bf00      	nop

08000ac4 <__aeabi_dcmpgt>:
 8000ac4:	f84d ed08 	str.w	lr, [sp, #-8]!
 8000ac8:	f7ff ffc4 	bl	8000a54 <__aeabi_cdrcmple>
 8000acc:	bf34      	ite	cc
 8000ace:	2001      	movcc	r0, #1
 8000ad0:	2000      	movcs	r0, #0
 8000ad2:	f85d fb08 	ldr.w	pc, [sp], #8
 8000ad6:	bf00      	nop

08000ad8 <Reset_Handler>:
 8000ad8:	f8df d03c 	ldr.w	sp, [pc, #60]	; 8000b18 <LoopFillZerobss+0x16>
 8000adc:	2100      	movs	r1, #0
 8000ade:	f000 b804 	b.w	8000aea <LoopCopyDataInit>

08000ae2 <CopyDataInit>:
 8000ae2:	4b0e      	ldr	r3, [pc, #56]	; (8000b1c <LoopFillZerobss+0x1a>)
 8000ae4:	585b      	ldr	r3, [r3, r1]
 8000ae6:	5043      	str	r3, [r0, r1]
 8000ae8:	3104      	adds	r1, #4

08000aea <LoopCopyDataInit>:
 8000aea:	480d      	ldr	r0, [pc, #52]	; (8000b20 <LoopFillZerobss+0x1e>)
 8000aec:	4b0d      	ldr	r3, [pc, #52]	; (8000b24 <LoopFillZerobss+0x22>)
 8000aee:	1842      	adds	r2, r0, r1
 8000af0:	429a      	cmp	r2, r3
 8000af2:	f4ff aff6 	bcc.w	8000ae2 <CopyDataInit>
 8000af6:	4a0c      	ldr	r2, [pc, #48]	; (8000b28 <LoopFillZerobss+0x26>)
 8000af8:	f000 b803 	b.w	8000b02 <LoopFillZerobss>

08000afc <FillZerobss>:
 8000afc:	2300      	movs	r3, #0
 8000afe:	f842 3b04 	str.w	r3, [r2], #4

08000b02 <LoopFillZerobss>:
 8000b02:	4b0a      	ldr	r3, [pc, #40]	; (8000b2c <LoopFillZerobss+0x2a>)
 8000b04:	429a      	cmp	r2, r3
 8000b06:	f4ff aff9 	bcc.w	8000afc <FillZerobss>
 8000b0a:	f000 fa37 	bl	8000f7c <SystemInit>
 8000b0e:	f006 f927 	bl	8006d60 <__libc_init_array>
 8000b12:	f000 fa0d 	bl	8000f30 <main>
 8000b16:	4770      	bx	lr
 8000b18:	20020000 	.word	0x20020000
 8000b1c:	08009a8c 	.word	0x08009a8c
 8000b20:	20000000 	.word	0x20000000
 8000b24:	2000021c 	.word	0x2000021c
 8000b28:	20000220 	.word	0x20000220
 8000b2c:	20015770 	.word	0x20015770

08000b30 <ADC_IRQHandler>:
 8000b30:	f7ff bffe 	b.w	8000b30 <ADC_IRQHandler>

08000b34 <NVIC_SetPriorityGrouping>:
 8000b34:	b480      	push	{r7}
 8000b36:	b085      	sub	sp, #20
 8000b38:	af00      	add	r7, sp, #0
 8000b3a:	6078      	str	r0, [r7, #4]
 8000b3c:	687b      	ldr	r3, [r7, #4]
 8000b3e:	f003 0307 	and.w	r3, r3, #7
 8000b42:	60fb      	str	r3, [r7, #12]
 8000b44:	4b0c      	ldr	r3, [pc, #48]	; (8000b78 <NVIC_SetPriorityGrouping+0x44>)
 8000b46:	68db      	ldr	r3, [r3, #12]
 8000b48:	60bb      	str	r3, [r7, #8]
 8000b4a:	68ba      	ldr	r2, [r7, #8]
 8000b4c:	f64f 03ff 	movw	r3, #63743	; 0xf8ff
 8000b50:	4013      	ands	r3, r2
 8000b52:	60bb      	str	r3, [r7, #8]
 8000b54:	68fb      	ldr	r3, [r7, #12]
 8000b56:	021a      	lsls	r2, r3, #8
 8000b58:	68bb      	ldr	r3, [r7, #8]
 8000b5a:	4313      	orrs	r3, r2
 8000b5c:	f043 63bf 	orr.w	r3, r3, #100139008	; 0x5f80000
 8000b60:	f443 3300 	orr.w	r3, r3, #131072	; 0x20000
 8000b64:	60bb      	str	r3, [r7, #8]
 8000b66:	4b04      	ldr	r3, [pc, #16]	; (8000b78 <NVIC_SetPriorityGrouping+0x44>)
 8000b68:	68ba      	ldr	r2, [r7, #8]
 8000b6a:	60da      	str	r2, [r3, #12]
 8000b6c:	3714      	adds	r7, #20
 8000b6e:	46bd      	mov	sp, r7
 8000b70:	f85d 7b04 	ldr.w	r7, [sp], #4
 8000b74:	4770      	bx	lr
 8000b76:	bf00      	nop
 8000b78:	e000ed00 	.word	0xe000ed00

08000b7c <NVIC_SetPriority>:
 8000b7c:	b480      	push	{r7}
 8000b7e:	b083      	sub	sp, #12
 8000b80:	af00      	add	r7, sp, #0
 8000b82:	4603      	mov	r3, r0
 8000b84:	6039      	str	r1, [r7, #0]
 8000b86:	71fb      	strb	r3, [r7, #7]
 8000b88:	f997 3007 	ldrsb.w	r3, [r7, #7]
 8000b8c:	2b00      	cmp	r3, #0
 8000b8e:	da0b      	bge.n	8000ba8 <NVIC_SetPriority+0x2c>
 8000b90:	490d      	ldr	r1, [pc, #52]	; (8000bc8 <NVIC_SetPriority+0x4c>)
 8000b92:	79fb      	ldrb	r3, [r7, #7]
 8000b94:	f003 030f 	and.w	r3, r3, #15
 8000b98:	3b04      	subs	r3, #4
 8000b9a:	683a      	ldr	r2, [r7, #0]
 8000b9c:	b2d2      	uxtb	r2, r2
 8000b9e:	0112      	lsls	r2, r2, #4
 8000ba0:	b2d2      	uxtb	r2, r2
 8000ba2:	440b      	add	r3, r1
 8000ba4:	761a      	strb	r2, [r3, #24]
 8000ba6:	e009      	b.n	8000bbc <NVIC_SetPriority+0x40>
 8000ba8:	4908      	ldr	r1, [pc, #32]	; (8000bcc <NVIC_SetPriority+0x50>)
 8000baa:	f997 3007 	ldrsb.w	r3, [r7, #7]
 8000bae:	683a      	ldr	r2, [r7, #0]
 8000bb0:	b2d2      	uxtb	r2, r2
 8000bb2:	0112      	lsls	r2, r2, #4
 8000bb4:	b2d2      	uxtb	r2, r2
 8000bb6:	440b      	add	r3, r1
 8000bb8:	f883 2300 	strb.w	r2, [r3, #768]	; 0x300
 8000bbc:	370c      	adds	r7, #12
 8000bbe:	46bd      	mov	sp, r7
 8000bc0:	f85d 7b04 	ldr.w	r7, [sp], #4
 8000bc4:	4770      	bx	lr
 8000bc6:	bf00      	nop
 8000bc8:	e000ed00 	.word	0xe000ed00
 8000bcc:	e000e100 	.word	0xe000e100

08000bd0 <SysTick_Config>:
 8000bd0:	b580      	push	{r7, lr}
 8000bd2:	b082      	sub	sp, #8
 8000bd4:	af00      	add	r7, sp, #0
 8000bd6:	6078      	str	r0, [r7, #4]
 8000bd8:	687b      	ldr	r3, [r7, #4]
 8000bda:	3b01      	subs	r3, #1
 8000bdc:	f1b3 7f80 	cmp.w	r3, #16777216	; 0x1000000
 8000be0:	d301      	bcc.n	8000be6 <SysTick_Config+0x16>
 8000be2:	2301      	movs	r3, #1
 8000be4:	e00f      	b.n	8000c06 <SysTick_Config+0x36>
 8000be6:	4b0a      	ldr	r3, [pc, #40]	; (8000c10 <SysTick_Config+0x40>)
 8000be8:	687a      	ldr	r2, [r7, #4]
 8000bea:	3a01      	subs	r2, #1
 8000bec:	605a      	str	r2, [r3, #4]
 8000bee:	f04f 30ff 	mov.w	r0, #4294967295	; 0xffffffff
 8000bf2:	210f      	movs	r1, #15
 8000bf4:	f7ff ffc2 	bl	8000b7c <NVIC_SetPriority>
 8000bf8:	4b05      	ldr	r3, [pc, #20]	; (8000c10 <SysTick_Config+0x40>)
 8000bfa:	2200      	movs	r2, #0
 8000bfc:	609a      	str	r2, [r3, #8]
 8000bfe:	4b04      	ldr	r3, [pc, #16]	; (8000c10 <SysTick_Config+0x40>)
 8000c00:	2207      	movs	r2, #7
 8000c02:	601a      	str	r2, [r3, #0]
 8000c04:	2300      	movs	r3, #0
 8000c06:	4618      	mov	r0, r3
 8000c08:	3708      	adds	r7, #8
 8000c0a:	46bd      	mov	sp, r7
 8000c0c:	bd80      	pop	{r7, pc}
 8000c0e:	bf00      	nop
 8000c10:	e000e010 	.word	0xe000e010

08000c14 <LL_RCC_HSE_Enable>:
 8000c14:	b480      	push	{r7}
 8000c16:	af00      	add	r7, sp, #0
 8000c18:	4b04      	ldr	r3, [pc, #16]	; (8000c2c <LL_RCC_HSE_Enable+0x18>)
 8000c1a:	4a04      	ldr	r2, [pc, #16]	; (8000c2c <LL_RCC_HSE_Enable+0x18>)
 8000c1c:	6812      	ldr	r2, [r2, #0]
 8000c1e:	f442 3280 	orr.w	r2, r2, #65536	; 0x10000
 8000c22:	601a      	str	r2, [r3, #0]
 8000c24:	46bd      	mov	sp, r7
 8000c26:	f85d 7b04 	ldr.w	r7, [sp], #4
 8000c2a:	4770      	bx	lr
 8000c2c:	40023800 	.word	0x40023800

08000c30 <LL_RCC_HSE_IsReady>:
 8000c30:	b480      	push	{r7}
 8000c32:	af00      	add	r7, sp, #0
 8000c34:	4b06      	ldr	r3, [pc, #24]	; (8000c50 <LL_RCC_HSE_IsReady+0x20>)
 8000c36:	681b      	ldr	r3, [r3, #0]
 8000c38:	f403 3300 	and.w	r3, r3, #131072	; 0x20000
 8000c3c:	2b00      	cmp	r3, #0
 8000c3e:	bf0c      	ite	eq
 8000c40:	2300      	moveq	r3, #0
 8000c42:	2301      	movne	r3, #1
 8000c44:	b2db      	uxtb	r3, r3
 8000c46:	4618      	mov	r0, r3
 8000c48:	46bd      	mov	sp, r7
 8000c4a:	f85d 7b04 	ldr.w	r7, [sp], #4
 8000c4e:	4770      	bx	lr
 8000c50:	40023800 	.word	0x40023800

08000c54 <LL_RCC_SetSysClkSource>:
 8000c54:	b480      	push	{r7}
 8000c56:	b083      	sub	sp, #12
 8000c58:	af00      	add	r7, sp, #0
 8000c5a:	6078      	str	r0, [r7, #4]
 8000c5c:	4b06      	ldr	r3, [pc, #24]	; (8000c78 <LL_RCC_SetSysClkSource+0x24>)
 8000c5e:	4a06      	ldr	r2, [pc, #24]	; (8000c78 <LL_RCC_SetSysClkSource+0x24>)
 8000c60:	6892      	ldr	r2, [r2, #8]
 8000c62:	f022 0103 	bic.w	r1, r2, #3
 8000c66:	687a      	ldr	r2, [r7, #4]
 8000c68:	430a      	orrs	r2, r1
 8000c6a:	609a      	str	r2, [r3, #8]
 8000c6c:	370c      	adds	r7, #12
 8000c6e:	46bd      	mov	sp, r7
 8000c70:	f85d 7b04 	ldr.w	r7, [sp], #4
 8000c74:	4770      	bx	lr
 8000c76:	bf00      	nop
 8000c78:	40023800 	.word	0x40023800

08000c7c <LL_RCC_GetSysClkSource>:
 8000c7c:	b480      	push	{r7}
 8000c7e:	af00      	add	r7, sp, #0
 8000c80:	4b04      	ldr	r3, [pc, #16]	; (8000c94 <LL_RCC_GetSysClkSource+0x18>)
 8000c82:	689b      	ldr	r3, [r3, #8]
 8000c84:	f003 030c 	and.w	r3, r3, #12
 8000c88:	4618      	mov	r0, r3
 8000c8a:	46bd      	mov	sp, r7
 8000c8c:	f85d 7b04 	ldr.w	r7, [sp], #4
 8000c90:	4770      	bx	lr
 8000c92:	bf00      	nop
 8000c94:	40023800 	.word	0x40023800

08000c98 <LL_RCC_SetAHBPrescaler>:
 8000c98:	b480      	push	{r7}
 8000c9a:	b083      	sub	sp, #12
 8000c9c:	af00      	add	r7, sp, #0
 8000c9e:	6078      	str	r0, [r7, #4]
 8000ca0:	4b06      	ldr	r3, [pc, #24]	; (8000cbc <LL_RCC_SetAHBPrescaler+0x24>)
 8000ca2:	4a06      	ldr	r2, [pc, #24]	; (8000cbc <LL_RCC_SetAHBPrescaler+0x24>)
 8000ca4:	6892      	ldr	r2, [r2, #8]
 8000ca6:	f022 01f0 	bic.w	r1, r2, #240	; 0xf0
 8000caa:	687a      	ldr	r2, [r7, #4]
 8000cac:	430a      	orrs	r2, r1
 8000cae:	609a      	str	r2, [r3, #8]
 8000cb0:	370c      	adds	r7, #12
 8000cb2:	46bd      	mov	sp, r7
 8000cb4:	f85d 7b04 	ldr.w	r7, [sp], #4
 8000cb8:	4770      	bx	lr
 8000cba:	bf00      	nop
 8000cbc:	40023800 	.word	0x40023800

08000cc0 <LL_RCC_SetAPB1Prescaler>:
 8000cc0:	b480      	push	{r7}
 8000cc2:	b083      	sub	sp, #12
 8000cc4:	af00      	add	r7, sp, #0
 8000cc6:	6078      	str	r0, [r7, #4]
 8000cc8:	4b06      	ldr	r3, [pc, #24]	; (8000ce4 <LL_RCC_SetAPB1Prescaler+0x24>)
 8000cca:	4a06      	ldr	r2, [pc, #24]	; (8000ce4 <LL_RCC_SetAPB1Prescaler+0x24>)
 8000ccc:	6892      	ldr	r2, [r2, #8]
 8000cce:	f422 51e0 	bic.w	r1, r2, #7168	; 0x1c00
 8000cd2:	687a      	ldr	r2, [r7, #4]
 8000cd4:	430a      	orrs	r2, r1
 8000cd6:	609a      	str	r2, [r3, #8]
 8000cd8:	370c      	adds	r7, #12
 8000cda:	46bd      	mov	sp, r7
 8000cdc:	f85d 7b04 	ldr.w	r7, [sp], #4
 8000ce0:	4770      	bx	lr
 8000ce2:	bf00      	nop
 8000ce4:	40023800 	.word	0x40023800

08000ce8 <LL_RCC_SetAPB2Prescaler>:
 8000ce8:	b480      	push	{r7}
 8000cea:	b083      	sub	sp, #12
 8000cec:	af00      	add	r7, sp, #0
 8000cee:	6078      	str	r0, [r7, #4]
 8000cf0:	4b06      	ldr	r3, [pc, #24]	; (8000d0c <LL_RCC_SetAPB2Prescaler+0x24>)
 8000cf2:	4a06      	ldr	r2, [pc, #24]	; (8000d0c <LL_RCC_SetAPB2Prescaler+0x24>)
 8000cf4:	6892      	ldr	r2, [r2, #8]
 8000cf6:	f422 4160 	bic.w	r1, r2, #57344	; 0xe000
 8000cfa:	687a      	ldr	r2, [r7, #4]
 8000cfc:	430a      	orrs	r2, r1
 8000cfe:	609a      	str	r2, [r3, #8]
 8000d00:	370c      	adds	r7, #12
 8000d02:	46bd      	mov	sp, r7
 8000d04:	f85d 7b04 	ldr.w	r7, [sp], #4
 8000d08:	4770      	bx	lr
 8000d0a:	bf00      	nop
 8000d0c:	40023800 	.word	0x40023800

08000d10 <LL_RCC_PLL_Enable>:
 8000d10:	b480      	push	{r7}
 8000d12:	af00      	add	r7, sp, #0
 8000d14:	4b04      	ldr	r3, [pc, #16]	; (8000d28 <LL_RCC_PLL_Enable+0x18>)
 8000d16:	4a04      	ldr	r2, [pc, #16]	; (8000d28 <LL_RCC_PLL_Enable+0x18>)
 8000d18:	6812      	ldr	r2, [r2, #0]
 8000d1a:	f042 7280 	orr.w	r2, r2, #16777216	; 0x1000000
 8000d1e:	601a      	str	r2, [r3, #0]
 8000d20:	46bd      	mov	sp, r7
 8000d22:	f85d 7b04 	ldr.w	r7, [sp], #4
 8000d26:	4770      	bx	lr
 8000d28:	40023800 	.word	0x40023800

08000d2c <LL_RCC_PLL_IsReady>:
 8000d2c:	b480      	push	{r7}
 8000d2e:	af00      	add	r7, sp, #0
 8000d30:	4b06      	ldr	r3, [pc, #24]	; (8000d4c <LL_RCC_PLL_IsReady+0x20>)
 8000d32:	681b      	ldr	r3, [r3, #0]
 8000d34:	f003 7300 	and.w	r3, r3, #33554432	; 0x2000000
 8000d38:	2b00      	cmp	r3, #0
 8000d3a:	bf0c      	ite	eq
 8000d3c:	2300      	moveq	r3, #0
 8000d3e:	2301      	movne	r3, #1
 8000d40:	b2db      	uxtb	r3, r3
 8000d42:	4618      	mov	r0, r3
 8000d44:	46bd      	mov	sp, r7
 8000d46:	f85d 7b04 	ldr.w	r7, [sp], #4
 8000d4a:	4770      	bx	lr
 8000d4c:	40023800 	.word	0x40023800

08000d50 <LL_RCC_PLL_ConfigDomain_SYS>:
 8000d50:	b480      	push	{r7}
 8000d52:	b085      	sub	sp, #20
 8000d54:	af00      	add	r7, sp, #0
 8000d56:	60f8      	str	r0, [r7, #12]
 8000d58:	60b9      	str	r1, [r7, #8]
 8000d5a:	607a      	str	r2, [r7, #4]
 8000d5c:	603b      	str	r3, [r7, #0]
 8000d5e:	4a0d      	ldr	r2, [pc, #52]	; (8000d94 <LL_RCC_PLL_ConfigDomain_SYS+0x44>)
 8000d60:	4b0c      	ldr	r3, [pc, #48]	; (8000d94 <LL_RCC_PLL_ConfigDomain_SYS+0x44>)
 8000d62:	6859      	ldr	r1, [r3, #4]
 8000d64:	4b0c      	ldr	r3, [pc, #48]	; (8000d98 <LL_RCC_PLL_ConfigDomain_SYS+0x48>)
 8000d66:	400b      	ands	r3, r1
 8000d68:	68f8      	ldr	r0, [r7, #12]
 8000d6a:	68b9      	ldr	r1, [r7, #8]
 8000d6c:	4308      	orrs	r0, r1
 8000d6e:	6879      	ldr	r1, [r7, #4]
 8000d70:	0189      	lsls	r1, r1, #6
 8000d72:	4301      	orrs	r1, r0
 8000d74:	430b      	orrs	r3, r1
 8000d76:	6053      	str	r3, [r2, #4]
 8000d78:	4b06      	ldr	r3, [pc, #24]	; (8000d94 <LL_RCC_PLL_ConfigDomain_SYS+0x44>)
 8000d7a:	4a06      	ldr	r2, [pc, #24]	; (8000d94 <LL_RCC_PLL_ConfigDomain_SYS+0x44>)
 8000d7c:	6852      	ldr	r2, [r2, #4]
 8000d7e:	f422 3140 	bic.w	r1, r2, #196608	; 0x30000
 8000d82:	683a      	ldr	r2, [r7, #0]
 8000d84:	430a      	orrs	r2, r1
 8000d86:	605a      	str	r2, [r3, #4]
 8000d88:	3714      	adds	r7, #20
 8000d8a:	46bd      	mov	sp, r7
 8000d8c:	f85d 7b04 	ldr.w	r7, [sp], #4
 8000d90:	4770      	bx	lr
 8000d92:	bf00      	nop
 8000d94:	40023800 	.word	0x40023800
 8000d98:	ffbf8000 	.word	0xffbf8000

08000d9c <LL_FLASH_SetLatency>:
 8000d9c:	b480      	push	{r7}
 8000d9e:	b083      	sub	sp, #12
 8000da0:	af00      	add	r7, sp, #0
 8000da2:	6078      	str	r0, [r7, #4]
 8000da4:	4b06      	ldr	r3, [pc, #24]	; (8000dc0 <LL_FLASH_SetLatency+0x24>)
 8000da6:	4a06      	ldr	r2, [pc, #24]	; (8000dc0 <LL_FLASH_SetLatency+0x24>)
 8000da8:	6812      	ldr	r2, [r2, #0]
 8000daa:	f022 010f 	bic.w	r1, r2, #15
 8000dae:	687a      	ldr	r2, [r7, #4]
 8000db0:	430a      	orrs	r2, r1
 8000db2:	601a      	str	r2, [r3, #0]
 8000db4:	370c      	adds	r7, #12
 8000db6:	46bd      	mov	sp, r7
 8000db8:	f85d 7b04 	ldr.w	r7, [sp], #4
 8000dbc:	4770      	bx	lr
 8000dbe:	bf00      	nop
 8000dc0:	40023c00 	.word	0x40023c00

08000dc4 <LL_AHB1_GRP1_EnableClock>:
 8000dc4:	b480      	push	{r7}
 8000dc6:	b085      	sub	sp, #20
 8000dc8:	af00      	add	r7, sp, #0
 8000dca:	6078      	str	r0, [r7, #4]
 8000dcc:	4b08      	ldr	r3, [pc, #32]	; (8000df0 <LL_AHB1_GRP1_EnableClock+0x2c>)
 8000dce:	4a08      	ldr	r2, [pc, #32]	; (8000df0 <LL_AHB1_GRP1_EnableClock+0x2c>)
 8000dd0:	6b11      	ldr	r1, [r2, #48]	; 0x30
 8000dd2:	687a      	ldr	r2, [r7, #4]
 8000dd4:	430a      	orrs	r2, r1
 8000dd6:	631a      	str	r2, [r3, #48]	; 0x30
 8000dd8:	4b05      	ldr	r3, [pc, #20]	; (8000df0 <LL_AHB1_GRP1_EnableClock+0x2c>)
 8000dda:	6b1a      	ldr	r2, [r3, #48]	; 0x30
 8000ddc:	687b      	ldr	r3, [r7, #4]
 8000dde:	4013      	ands	r3, r2
 8000de0:	60fb      	str	r3, [r7, #12]
 8000de2:	68fb      	ldr	r3, [r7, #12]
 8000de4:	3714      	adds	r7, #20
 8000de6:	46bd      	mov	sp, r7
 8000de8:	f85d 7b04 	ldr.w	r7, [sp], #4
 8000dec:	4770      	bx	lr
 8000dee:	bf00      	nop
 8000df0:	40023800 	.word	0x40023800

08000df4 <LL_GPIO_SetPinMode>:
 8000df4:	b480      	push	{r7}
 8000df6:	b089      	sub	sp, #36	; 0x24
 8000df8:	af00      	add	r7, sp, #0
 8000dfa:	60f8      	str	r0, [r7, #12]
 8000dfc:	60b9      	str	r1, [r7, #8]
 8000dfe:	607a      	str	r2, [r7, #4]
 8000e00:	68fb      	ldr	r3, [r7, #12]
 8000e02:	681a      	ldr	r2, [r3, #0]
 8000e04:	68bb      	ldr	r3, [r7, #8]
 8000e06:	61fb      	str	r3, [r7, #28]
 8000e08:	69fb      	ldr	r3, [r7, #28]
 8000e0a:	fa93 f3a3 	rbit	r3, r3
 8000e0e:	61bb      	str	r3, [r7, #24]
 8000e10:	69bb      	ldr	r3, [r7, #24]
 8000e12:	fab3 f383 	clz	r3, r3
 8000e16:	005b      	lsls	r3, r3, #1
 8000e18:	2103      	movs	r1, #3
 8000e1a:	fa01 f303 	lsl.w	r3, r1, r3
 8000e1e:	43db      	mvns	r3, r3
 8000e20:	401a      	ands	r2, r3
 8000e22:	68bb      	ldr	r3, [r7, #8]
 8000e24:	617b      	str	r3, [r7, #20]
 8000e26:	697b      	ldr	r3, [r7, #20]
 8000e28:	fa93 f3a3 	rbit	r3, r3
 8000e2c:	613b      	str	r3, [r7, #16]
 8000e2e:	693b      	ldr	r3, [r7, #16]
 8000e30:	fab3 f383 	clz	r3, r3
 8000e34:	005b      	lsls	r3, r3, #1
 8000e36:	6879      	ldr	r1, [r7, #4]
 8000e38:	fa01 f303 	lsl.w	r3, r1, r3
 8000e3c:	431a      	orrs	r2, r3
 8000e3e:	68fb      	ldr	r3, [r7, #12]
 8000e40:	601a      	str	r2, [r3, #0]
 8000e42:	3724      	adds	r7, #36	; 0x24
 8000e44:	46bd      	mov	sp, r7
 8000e46:	f85d 7b04 	ldr.w	r7, [sp], #4
 8000e4a:	4770      	bx	lr

08000e4c <LL_GPIO_TogglePin>:
 8000e4c:	b480      	push	{r7}
 8000e4e:	b083      	sub	sp, #12
 8000e50:	af00      	add	r7, sp, #0
 8000e52:	6078      	str	r0, [r7, #4]
 8000e54:	6039      	str	r1, [r7, #0]
 8000e56:	687b      	ldr	r3, [r7, #4]
 8000e58:	695a      	ldr	r2, [r3, #20]
 8000e5a:	683b      	ldr	r3, [r7, #0]
 8000e5c:	405a      	eors	r2, r3
 8000e5e:	687b      	ldr	r3, [r7, #4]
 8000e60:	615a      	str	r2, [r3, #20]
 8000e62:	370c      	adds	r7, #12
 8000e64:	46bd      	mov	sp, r7
 8000e66:	f85d 7b04 	ldr.w	r7, [sp], #4
 8000e6a:	4770      	bx	lr

08000e6c <rcc_config>:
 8000e6c:	b580      	push	{r7, lr}
 8000e6e:	af00      	add	r7, sp, #0
 8000e70:	f7ff fed0 	bl	8000c14 <LL_RCC_HSE_Enable>
 8000e74:	bf00      	nop
 8000e76:	f7ff fedb 	bl	8000c30 <LL_RCC_HSE_IsReady>
 8000e7a:	4603      	mov	r3, r0
 8000e7c:	2b01      	cmp	r3, #1
 8000e7e:	d1fa      	bne.n	8000e76 <rcc_config+0xa>
 8000e80:	2005      	movs	r0, #5
 8000e82:	f7ff ff8b 	bl	8000d9c <LL_FLASH_SetLatency>
 8000e86:	f44f 0080 	mov.w	r0, #4194304	; 0x400000
 8000e8a:	2108      	movs	r1, #8
 8000e8c:	f44f 72a8 	mov.w	r2, #336	; 0x150
 8000e90:	2300      	movs	r3, #0
 8000e92:	f7ff ff5d 	bl	8000d50 <LL_RCC_PLL_ConfigDomain_SYS>
 8000e96:	f7ff ff3b 	bl	8000d10 <LL_RCC_PLL_Enable>
 8000e9a:	bf00      	nop
 8000e9c:	f7ff ff46 	bl	8000d2c <LL_RCC_PLL_IsReady>
 8000ea0:	4603      	mov	r3, r0
 8000ea2:	2b01      	cmp	r3, #1
 8000ea4:	d1fa      	bne.n	8000e9c <rcc_config+0x30>
 8000ea6:	2000      	movs	r0, #0
 8000ea8:	f7ff fef6 	bl	8000c98 <LL_RCC_SetAHBPrescaler>
 8000eac:	2002      	movs	r0, #2
 8000eae:	f7ff fed1 	bl	8000c54 <LL_RCC_SetSysClkSource>
 8000eb2:	bf00      	nop
 8000eb4:	f7ff fee2 	bl	8000c7c <LL_RCC_GetSysClkSource>
 8000eb8:	4603      	mov	r3, r0
 8000eba:	2b08      	cmp	r3, #8
 8000ebc:	d1fa      	bne.n	8000eb4 <rcc_config+0x48>
 8000ebe:	f44f 50a0 	mov.w	r0, #5120	; 0x1400
 8000ec2:	f7ff fefd 	bl	8000cc0 <LL_RCC_SetAPB1Prescaler>
 8000ec6:	f44f 4000 	mov.w	r0, #32768	; 0x8000
 8000eca:	f7ff ff0d 	bl	8000ce8 <LL_RCC_SetAPB2Prescaler>
 8000ece:	4803      	ldr	r0, [pc, #12]	; (8000edc <rcc_config+0x70>)
 8000ed0:	f7ff fe7e 	bl	8000bd0 <SysTick_Config>
 8000ed4:	4b02      	ldr	r3, [pc, #8]	; (8000ee0 <rcc_config+0x74>)
 8000ed6:	4a03      	ldr	r2, [pc, #12]	; (8000ee4 <rcc_config+0x78>)
 8000ed8:	601a      	str	r2, [r3, #0]
 8000eda:	bd80      	pop	{r7, pc}
 8000edc:	00029040 	.word	0x00029040
 8000ee0:	20000000 	.word	0x20000000
 8000ee4:	0a037a00 	.word	0x0a037a00

08000ee8 <gpio_config>:
 8000ee8:	b580      	push	{r7, lr}
 8000eea:	af00      	add	r7, sp, #0
 8000eec:	2008      	movs	r0, #8
 8000eee:	f7ff ff69 	bl	8000dc4 <LL_AHB1_GRP1_EnableClock>
 8000ef2:	4803      	ldr	r0, [pc, #12]	; (8000f00 <gpio_config+0x18>)
 8000ef4:	f44f 5100 	mov.w	r1, #8192	; 0x2000
 8000ef8:	2201      	movs	r2, #1
 8000efa:	f7ff ff7b 	bl	8000df4 <LL_GPIO_SetPinMode>
 8000efe:	bd80      	pop	{r7, pc}
 8000f00:	40020c00 	.word	0x40020c00

08000f04 <test_FPU_test>:
 8000f04:	b580      	push	{r7, lr}
 8000f06:	b086      	sub	sp, #24
 8000f08:	af00      	add	r7, sp, #0
 8000f0a:	6078      	str	r0, [r7, #4]
 8000f0c:	2300      	movs	r3, #0
 8000f0e:	617b      	str	r3, [r7, #20]
 8000f10:	2300      	movs	r3, #0
 8000f12:	613b      	str	r3, [r7, #16]
 8000f14:	2300      	movs	r3, #0
 8000f16:	60fb      	str	r3, [r7, #12]
 8000f18:	4804      	ldr	r0, [pc, #16]	; (8000f2c <test_FPU_test+0x28>)
 8000f1a:	f44f 5100 	mov.w	r1, #8192	; 0x2000
 8000f1e:	f7ff ff95 	bl	8000e4c <LL_GPIO_TogglePin>
 8000f22:	f44f 707a 	mov.w	r0, #1000	; 0x3e8
 8000f26:	f004 fa5f 	bl	80053e8 <vTaskDelay>
 8000f2a:	e7f5      	b.n	8000f18 <test_FPU_test+0x14>
 8000f2c:	40020c00 	.word	0x40020c00

08000f30 <main>:
 8000f30:	b580      	push	{r7, lr}
 8000f32:	b084      	sub	sp, #16
 8000f34:	af04      	add	r7, sp, #16
 8000f36:	f7ff ff99 	bl	8000e6c <rcc_config>
 8000f3a:	f7ff ffd5 	bl	8000ee8 <gpio_config>
 8000f3e:	2004      	movs	r0, #4
 8000f40:	f7ff fdf8 	bl	8000b34 <NVIC_SetPriorityGrouping>
 8000f44:	2301      	movs	r3, #1
 8000f46:	9300      	str	r3, [sp, #0]
 8000f48:	4b08      	ldr	r3, [pc, #32]	; (8000f6c <main+0x3c>)
 8000f4a:	9301      	str	r3, [sp, #4]
 8000f4c:	4b08      	ldr	r3, [pc, #32]	; (8000f70 <main+0x40>)
 8000f4e:	9302      	str	r3, [sp, #8]
 8000f50:	4808      	ldr	r0, [pc, #32]	; (8000f74 <main+0x44>)
 8000f52:	4909      	ldr	r1, [pc, #36]	; (8000f78 <main+0x48>)
 8000f54:	f44f 6280 	mov.w	r2, #1024	; 0x400
 8000f58:	2300      	movs	r3, #0
 8000f5a:	f004 f8a3 	bl	80050a4 <xTaskCreateStatic>
 8000f5e:	f004 fa75 	bl	800544c <vTaskStartScheduler>
 8000f62:	2300      	movs	r3, #0
 8000f64:	4618      	mov	r0, r3
 8000f66:	46bd      	mov	sp, r7
 8000f68:	bd80      	pop	{r7, pc}
 8000f6a:	bf00      	nop
 8000f6c:	20013d8c 	.word	0x20013d8c
 8000f70:	20013908 	.word	0x20013908
 8000f74:	08000f05 	.word	0x08000f05
 8000f78:	080094e8 	.word	0x080094e8

08000f7c <SystemInit>:
 8000f7c:	b480      	push	{r7}
 8000f7e:	af00      	add	r7, sp, #0
 8000f80:	4b16      	ldr	r3, [pc, #88]	; (8000fdc <SystemInit+0x60>)
 8000f82:	4a16      	ldr	r2, [pc, #88]	; (8000fdc <SystemInit+0x60>)
 8000f84:	f8d2 2088 	ldr.w	r2, [r2, #136]	; 0x88
 8000f88:	f442 0270 	orr.w	r2, r2, #15728640	; 0xf00000
 8000f8c:	f8c3 2088 	str.w	r2, [r3, #136]	; 0x88
 8000f90:	4b13      	ldr	r3, [pc, #76]	; (8000fe0 <SystemInit+0x64>)
 8000f92:	4a13      	ldr	r2, [pc, #76]	; (8000fe0 <SystemInit+0x64>)
 8000f94:	6812      	ldr	r2, [r2, #0]
 8000f96:	f042 0201 	orr.w	r2, r2, #1
 8000f9a:	601a      	str	r2, [r3, #0]
 8000f9c:	4b10      	ldr	r3, [pc, #64]	; (8000fe0 <SystemInit+0x64>)
 8000f9e:	2200      	movs	r2, #0
 8000fa0:	609a      	str	r2, [r3, #8]
 8000fa2:	4a0f      	ldr	r2, [pc, #60]	; (8000fe0 <SystemInit+0x64>)
 8000fa4:	4b0e      	ldr	r3, [pc, #56]	; (8000fe0 <SystemInit+0x64>)
 8000fa6:	681b      	ldr	r3, [r3, #0]
 8000fa8:	f023 7384 	bic.w	r3, r3, #17301504	; 0x1080000
 8000fac:	f423 3380 	bic.w	r3, r3, #65536	; 0x10000
 8000fb0:	6013      	str	r3, [r2, #0]
 8000fb2:	4b0b      	ldr	r3, [pc, #44]	; (8000fe0 <SystemInit+0x64>)
 8000fb4:	4a0b      	ldr	r2, [pc, #44]	; (8000fe4 <SystemInit+0x68>)
 8000fb6:	605a      	str	r2, [r3, #4]
 8000fb8:	4b09      	ldr	r3, [pc, #36]	; (8000fe0 <SystemInit+0x64>)
 8000fba:	4a09      	ldr	r2, [pc, #36]	; (8000fe0 <SystemInit+0x64>)
 8000fbc:	6812      	ldr	r2, [r2, #0]
 8000fbe:	f422 2280 	bic.w	r2, r2, #262144	; 0x40000
 8000fc2:	601a      	str	r2, [r3, #0]
 8000fc4:	4b06      	ldr	r3, [pc, #24]	; (8000fe0 <SystemInit+0x64>)
 8000fc6:	2200      	movs	r2, #0
 8000fc8:	60da      	str	r2, [r3, #12]
 8000fca:	4b04      	ldr	r3, [pc, #16]	; (8000fdc <SystemInit+0x60>)
 8000fcc:	f04f 6200 	mov.w	r2, #134217728	; 0x8000000
 8000fd0:	609a      	str	r2, [r3, #8]
 8000fd2:	46bd      	mov	sp, r7
 8000fd4:	f85d 7b04 	ldr.w	r7, [sp], #4
 8000fd8:	4770      	bx	lr
 8000fda:	bf00      	nop
 8000fdc:	e000ed00 	.word	0xe000ed00
 8000fe0:	40023800 	.word	0x40023800
 8000fe4:	24003010 	.word	0x24003010

08000fe8 <gpioInitClock>:
 8000fe8:	b480      	push	{r7}
 8000fea:	b083      	sub	sp, #12
 8000fec:	af00      	add	r7, sp, #0
 8000fee:	6078      	str	r0, [r7, #4]
 8000ff0:	687a      	ldr	r2, [r7, #4]
 8000ff2:	4b34      	ldr	r3, [pc, #208]	; (80010c4 <gpioInitClock+0xdc>)
 8000ff4:	429a      	cmp	r2, r3
 8000ff6:	d106      	bne.n	8001006 <gpioInitClock+0x1e>
 8000ff8:	4b33      	ldr	r3, [pc, #204]	; (80010c8 <gpioInitClock+0xe0>)
 8000ffa:	4a33      	ldr	r2, [pc, #204]	; (80010c8 <gpioInitClock+0xe0>)
 8000ffc:	6b12      	ldr	r2, [r2, #48]	; 0x30
 8000ffe:	f042 0201 	orr.w	r2, r2, #1
 8001002:	631a      	str	r2, [r3, #48]	; 0x30
 8001004:	e058      	b.n	80010b8 <gpioInitClock+0xd0>
 8001006:	687a      	ldr	r2, [r7, #4]
 8001008:	4b30      	ldr	r3, [pc, #192]	; (80010cc <gpioInitClock+0xe4>)
 800100a:	429a      	cmp	r2, r3
 800100c:	d106      	bne.n	800101c <gpioInitClock+0x34>
 800100e:	4b2e      	ldr	r3, [pc, #184]	; (80010c8 <gpioInitClock+0xe0>)
 8001010:	4a2d      	ldr	r2, [pc, #180]	; (80010c8 <gpioInitClock+0xe0>)
 8001012:	6b12      	ldr	r2, [r2, #48]	; 0x30
 8001014:	f042 0202 	orr.w	r2, r2, #2
 8001018:	631a      	str	r2, [r3, #48]	; 0x30
 800101a:	e04d      	b.n	80010b8 <gpioInitClock+0xd0>
 800101c:	687a      	ldr	r2, [r7, #4]
 800101e:	4b2c      	ldr	r3, [pc, #176]	; (80010d0 <gpioInitClock+0xe8>)
 8001020:	429a      	cmp	r2, r3
 8001022:	d106      	bne.n	8001032 <gpioInitClock+0x4a>
 8001024:	4b28      	ldr	r3, [pc, #160]	; (80010c8 <gpioInitClock+0xe0>)
 8001026:	4a28      	ldr	r2, [pc, #160]	; (80010c8 <gpioInitClock+0xe0>)
 8001028:	6b12      	ldr	r2, [r2, #48]	; 0x30
 800102a:	f042 0204 	orr.w	r2, r2, #4
 800102e:	631a      	str	r2, [r3, #48]	; 0x30
 8001030:	e042      	b.n	80010b8 <gpioInitClock+0xd0>
 8001032:	687a      	ldr	r2, [r7, #4]
 8001034:	4b27      	ldr	r3, [pc, #156]	; (80010d4 <gpioInitClock+0xec>)
 8001036:	429a      	cmp	r2, r3
 8001038:	d106      	bne.n	8001048 <gpioInitClock+0x60>
 800103a:	4b23      	ldr	r3, [pc, #140]	; (80010c8 <gpioInitClock+0xe0>)
 800103c:	4a22      	ldr	r2, [pc, #136]	; (80010c8 <gpioInitClock+0xe0>)
 800103e:	6b12      	ldr	r2, [r2, #48]	; 0x30
 8001040:	f042 0208 	orr.w	r2, r2, #8
 8001044:	631a      	str	r2, [r3, #48]	; 0x30
 8001046:	e037      	b.n	80010b8 <gpioInitClock+0xd0>
 8001048:	687a      	ldr	r2, [r7, #4]
 800104a:	4b23      	ldr	r3, [pc, #140]	; (80010d8 <gpioInitClock+0xf0>)
 800104c:	429a      	cmp	r2, r3
 800104e:	d106      	bne.n	800105e <gpioInitClock+0x76>
 8001050:	4b1d      	ldr	r3, [pc, #116]	; (80010c8 <gpioInitClock+0xe0>)
 8001052:	4a1d      	ldr	r2, [pc, #116]	; (80010c8 <gpioInitClock+0xe0>)
 8001054:	6b12      	ldr	r2, [r2, #48]	; 0x30
 8001056:	f042 0210 	orr.w	r2, r2, #16
 800105a:	631a      	str	r2, [r3, #48]	; 0x30
 800105c:	e02c      	b.n	80010b8 <gpioInitClock+0xd0>
 800105e:	687a      	ldr	r2, [r7, #4]
 8001060:	4b1e      	ldr	r3, [pc, #120]	; (80010dc <gpioInitClock+0xf4>)
 8001062:	429a      	cmp	r2, r3
 8001064:	d106      	bne.n	8001074 <gpioInitClock+0x8c>
 8001066:	4b18      	ldr	r3, [pc, #96]	; (80010c8 <gpioInitClock+0xe0>)
 8001068:	4a17      	ldr	r2, [pc, #92]	; (80010c8 <gpioInitClock+0xe0>)
 800106a:	6b12      	ldr	r2, [r2, #48]	; 0x30
 800106c:	f042 0220 	orr.w	r2, r2, #32
 8001070:	631a      	str	r2, [r3, #48]	; 0x30
 8001072:	e021      	b.n	80010b8 <gpioInitClock+0xd0>
 8001074:	687a      	ldr	r2, [r7, #4]
 8001076:	4b1a      	ldr	r3, [pc, #104]	; (80010e0 <gpioInitClock+0xf8>)
 8001078:	429a      	cmp	r2, r3
 800107a:	d106      	bne.n	800108a <gpioInitClock+0xa2>
 800107c:	4b12      	ldr	r3, [pc, #72]	; (80010c8 <gpioInitClock+0xe0>)
 800107e:	4a12      	ldr	r2, [pc, #72]	; (80010c8 <gpioInitClock+0xe0>)
 8001080:	6b12      	ldr	r2, [r2, #48]	; 0x30
 8001082:	f042 0240 	orr.w	r2, r2, #64	; 0x40
 8001086:	631a      	str	r2, [r3, #48]	; 0x30
 8001088:	e016      	b.n	80010b8 <gpioInitClock+0xd0>
 800108a:	687a      	ldr	r2, [r7, #4]
 800108c:	4b15      	ldr	r3, [pc, #84]	; (80010e4 <gpioInitClock+0xfc>)
 800108e:	429a      	cmp	r2, r3
 8001090:	d106      	bne.n	80010a0 <gpioInitClock+0xb8>
 8001092:	4b0d      	ldr	r3, [pc, #52]	; (80010c8 <gpioInitClock+0xe0>)
 8001094:	4a0c      	ldr	r2, [pc, #48]	; (80010c8 <gpioInitClock+0xe0>)
 8001096:	6b12      	ldr	r2, [r2, #48]	; 0x30
 8001098:	f042 0280 	orr.w	r2, r2, #128	; 0x80
 800109c:	631a      	str	r2, [r3, #48]	; 0x30
 800109e:	e00b      	b.n	80010b8 <gpioInitClock+0xd0>
 80010a0:	687a      	ldr	r2, [r7, #4]
 80010a2:	4b11      	ldr	r3, [pc, #68]	; (80010e8 <gpioInitClock+0x100>)
 80010a4:	429a      	cmp	r2, r3
 80010a6:	d106      	bne.n	80010b6 <gpioInitClock+0xce>
 80010a8:	4b07      	ldr	r3, [pc, #28]	; (80010c8 <gpioInitClock+0xe0>)
 80010aa:	4a07      	ldr	r2, [pc, #28]	; (80010c8 <gpioInitClock+0xe0>)
 80010ac:	6b12      	ldr	r2, [r2, #48]	; 0x30
 80010ae:	f442 7280 	orr.w	r2, r2, #256	; 0x100
 80010b2:	631a      	str	r2, [r3, #48]	; 0x30
 80010b4:	e000      	b.n	80010b8 <gpioInitClock+0xd0>
 80010b6:	bf00      	nop
 80010b8:	370c      	adds	r7, #12
 80010ba:	46bd      	mov	sp, r7
 80010bc:	f85d 7b04 	ldr.w	r7, [sp], #4
 80010c0:	4770      	bx	lr
 80010c2:	bf00      	nop
 80010c4:	40020000 	.word	0x40020000
 80010c8:	40023800 	.word	0x40023800
 80010cc:	40020400 	.word	0x40020400
 80010d0:	40020800 	.word	0x40020800
 80010d4:	40020c00 	.word	0x40020c00
 80010d8:	40021000 	.word	0x40021000
 80010dc:	40021400 	.word	0x40021400
 80010e0:	40021800 	.word	0x40021800
 80010e4:	40021c00 	.word	0x40021c00
 80010e8:	40022000 	.word	0x40022000

080010ec <gpioInitPin>:
 80010ec:	b580      	push	{r7, lr}
 80010ee:	b082      	sub	sp, #8
 80010f0:	af00      	add	r7, sp, #0
 80010f2:	6078      	str	r0, [r7, #4]
 80010f4:	70f9      	strb	r1, [r7, #3]
 80010f6:	70ba      	strb	r2, [r7, #2]
 80010f8:	707b      	strb	r3, [r7, #1]
 80010fa:	6878      	ldr	r0, [r7, #4]
 80010fc:	f7ff ff74 	bl	8000fe8 <gpioInitClock>
 8001100:	687b      	ldr	r3, [r7, #4]
 8001102:	681a      	ldr	r2, [r3, #0]
 8001104:	78fb      	ldrb	r3, [r7, #3]
 8001106:	005b      	lsls	r3, r3, #1
 8001108:	2103      	movs	r1, #3
 800110a:	fa01 f303 	lsl.w	r3, r1, r3
 800110e:	43db      	mvns	r3, r3
 8001110:	401a      	ands	r2, r3
 8001112:	78b9      	ldrb	r1, [r7, #2]
 8001114:	78fb      	ldrb	r3, [r7, #3]
 8001116:	005b      	lsls	r3, r3, #1
 8001118:	fa01 f303 	lsl.w	r3, r1, r3
 800111c:	431a      	orrs	r2, r3
 800111e:	687b      	ldr	r3, [r7, #4]
 8001120:	601a      	str	r2, [r3, #0]
 8001122:	687b      	ldr	r3, [r7, #4]
 8001124:	68da      	ldr	r2, [r3, #12]
 8001126:	78fb      	ldrb	r3, [r7, #3]
 8001128:	005b      	lsls	r3, r3, #1
 800112a:	2103      	movs	r1, #3
 800112c:	fa01 f303 	lsl.w	r3, r1, r3
 8001130:	43db      	mvns	r3, r3
 8001132:	401a      	ands	r2, r3
 8001134:	7c39      	ldrb	r1, [r7, #16]
 8001136:	78fb      	ldrb	r3, [r7, #3]
 8001138:	005b      	lsls	r3, r3, #1
 800113a:	fa01 f303 	lsl.w	r3, r1, r3
 800113e:	431a      	orrs	r2, r3
 8001140:	687b      	ldr	r3, [r7, #4]
 8001142:	60da      	str	r2, [r3, #12]
 8001144:	78bb      	ldrb	r3, [r7, #2]
 8001146:	2b01      	cmp	r3, #1
 8001148:	d002      	beq.n	8001150 <gpioInitPin+0x64>
 800114a:	78bb      	ldrb	r3, [r7, #2]
 800114c:	2b02      	cmp	r3, #2
 800114e:	d10e      	bne.n	800116e <gpioInitPin+0x82>
 8001150:	687b      	ldr	r3, [r7, #4]
 8001152:	685a      	ldr	r2, [r3, #4]
 8001154:	78fb      	ldrb	r3, [r7, #3]
 8001156:	2101      	movs	r1, #1
 8001158:	fa01 f303 	lsl.w	r3, r1, r3
 800115c:	43db      	mvns	r3, r3
 800115e:	401a      	ands	r2, r3
 8001160:	7879      	ldrb	r1, [r7, #1]
 8001162:	78fb      	ldrb	r3, [r7, #3]
 8001164:	fa01 f303 	lsl.w	r3, r1, r3
 8001168:	431a      	orrs	r2, r3
 800116a:	687b      	ldr	r3, [r7, #4]
 800116c:	605a      	str	r2, [r3, #4]
 800116e:	bf00      	nop
 8001170:	3708      	adds	r7, #8
 8001172:	46bd      	mov	sp, r7
 8001174:	bd80      	pop	{r7, pc}
 8001176:	bf00      	nop

08001178 <gpioInitPinAf>:
 8001178:	b580      	push	{r7, lr}
 800117a:	b082      	sub	sp, #8
 800117c:	af00      	add	r7, sp, #0
 800117e:	6078      	str	r0, [r7, #4]
 8001180:	4613      	mov	r3, r2
 8001182:	460a      	mov	r2, r1
 8001184:	70fa      	strb	r2, [r7, #3]
 8001186:	70bb      	strb	r3, [r7, #2]
 8001188:	6878      	ldr	r0, [r7, #4]
 800118a:	f7ff ff2d 	bl	8000fe8 <gpioInitClock>
 800118e:	687b      	ldr	r3, [r7, #4]
 8001190:	681a      	ldr	r2, [r3, #0]
 8001192:	78fb      	ldrb	r3, [r7, #3]
 8001194:	005b      	lsls	r3, r3, #1
 8001196:	2103      	movs	r1, #3
 8001198:	fa01 f303 	lsl.w	r3, r1, r3
 800119c:	43db      	mvns	r3, r3
 800119e:	401a      	ands	r2, r3
 80011a0:	78fb      	ldrb	r3, [r7, #3]
 80011a2:	005b      	lsls	r3, r3, #1
 80011a4:	2102      	movs	r1, #2
 80011a6:	fa01 f303 	lsl.w	r3, r1, r3
 80011aa:	431a      	orrs	r2, r3
 80011ac:	687b      	ldr	r3, [r7, #4]
 80011ae:	601a      	str	r2, [r3, #0]
 80011b0:	78fb      	ldrb	r3, [r7, #3]
 80011b2:	2b07      	cmp	r3, #7
 80011b4:	d811      	bhi.n	80011da <gpioInitPinAf+0x62>
 80011b6:	687b      	ldr	r3, [r7, #4]
 80011b8:	6a1a      	ldr	r2, [r3, #32]
 80011ba:	78fb      	ldrb	r3, [r7, #3]
 80011bc:	009b      	lsls	r3, r3, #2
 80011be:	210f      	movs	r1, #15
 80011c0:	fa01 f303 	lsl.w	r3, r1, r3
 80011c4:	43db      	mvns	r3, r3
 80011c6:	401a      	ands	r2, r3
 80011c8:	78b9      	ldrb	r1, [r7, #2]
 80011ca:	78fb      	ldrb	r3, [r7, #3]
 80011cc:	009b      	lsls	r3, r3, #2
 80011ce:	fa01 f303 	lsl.w	r3, r1, r3
 80011d2:	431a      	orrs	r2, r3
 80011d4:	687b      	ldr	r3, [r7, #4]
 80011d6:	621a      	str	r2, [r3, #32]
 80011d8:	e015      	b.n	8001206 <gpioInitPinAf+0x8e>
 80011da:	78fb      	ldrb	r3, [r7, #3]
 80011dc:	2b07      	cmp	r3, #7
 80011de:	d912      	bls.n	8001206 <gpioInitPinAf+0x8e>
 80011e0:	687b      	ldr	r3, [r7, #4]
 80011e2:	6a5a      	ldr	r2, [r3, #36]	; 0x24
 80011e4:	78fb      	ldrb	r3, [r7, #3]
 80011e6:	3b08      	subs	r3, #8
 80011e8:	009b      	lsls	r3, r3, #2
 80011ea:	210f      	movs	r1, #15
 80011ec:	fa01 f303 	lsl.w	r3, r1, r3
 80011f0:	43db      	mvns	r3, r3
 80011f2:	401a      	ands	r2, r3
 80011f4:	78b9      	ldrb	r1, [r7, #2]
 80011f6:	78fb      	ldrb	r3, [r7, #3]
 80011f8:	3b08      	subs	r3, #8
 80011fa:	009b      	lsls	r3, r3, #2
 80011fc:	fa01 f303 	lsl.w	r3, r1, r3
 8001200:	431a      	orrs	r2, r3
 8001202:	687b      	ldr	r3, [r7, #4]
 8001204:	625a      	str	r2, [r3, #36]	; 0x24
 8001206:	bf00      	nop
 8001208:	3708      	adds	r7, #8
 800120a:	46bd      	mov	sp, r7
 800120c:	bd80      	pop	{r7, pc}
 800120e:	bf00      	nop

08001210 <gpioPinSetLevel>:
 8001210:	b480      	push	{r7}
 8001212:	b083      	sub	sp, #12
 8001214:	af00      	add	r7, sp, #0
 8001216:	6078      	str	r0, [r7, #4]
 8001218:	4613      	mov	r3, r2
 800121a:	460a      	mov	r2, r1
 800121c:	70fa      	strb	r2, [r7, #3]
 800121e:	70bb      	strb	r3, [r7, #2]
 8001220:	78bb      	ldrb	r3, [r7, #2]
 8001222:	2b00      	cmp	r3, #0
 8001224:	d10a      	bne.n	800123c <gpioPinSetLevel+0x2c>
 8001226:	687b      	ldr	r3, [r7, #4]
 8001228:	699a      	ldr	r2, [r3, #24]
 800122a:	78fb      	ldrb	r3, [r7, #3]
 800122c:	3310      	adds	r3, #16
 800122e:	2101      	movs	r1, #1
 8001230:	fa01 f303 	lsl.w	r3, r1, r3
 8001234:	431a      	orrs	r2, r3
 8001236:	687b      	ldr	r3, [r7, #4]
 8001238:	619a      	str	r2, [r3, #24]
 800123a:	e00b      	b.n	8001254 <gpioPinSetLevel+0x44>
 800123c:	78bb      	ldrb	r3, [r7, #2]
 800123e:	2b01      	cmp	r3, #1
 8001240:	d108      	bne.n	8001254 <gpioPinSetLevel+0x44>
 8001242:	687b      	ldr	r3, [r7, #4]
 8001244:	699a      	ldr	r2, [r3, #24]
 8001246:	78fb      	ldrb	r3, [r7, #3]
 8001248:	2101      	movs	r1, #1
 800124a:	fa01 f303 	lsl.w	r3, r1, r3
 800124e:	431a      	orrs	r2, r3
 8001250:	687b      	ldr	r3, [r7, #4]
 8001252:	619a      	str	r2, [r3, #24]
 8001254:	370c      	adds	r7, #12
 8001256:	46bd      	mov	sp, r7
 8001258:	f85d 7b04 	ldr.w	r7, [sp], #4
 800125c:	4770      	bx	lr
 800125e:	bf00      	nop

08001260 <I2CInit>:
 8001260:	b5b0      	push	{r4, r5, r7, lr}
 8001262:	b084      	sub	sp, #16
 8001264:	af00      	add	r7, sp, #0
 8001266:	6078      	str	r0, [r7, #4]
 8001268:	687b      	ldr	r3, [r7, #4]
 800126a:	681a      	ldr	r2, [r3, #0]
 800126c:	4b3b      	ldr	r3, [pc, #236]	; (800135c <I2CInit+0xfc>)
 800126e:	429a      	cmp	r2, r3
 8001270:	d106      	bne.n	8001280 <I2CInit+0x20>
 8001272:	4b3b      	ldr	r3, [pc, #236]	; (8001360 <I2CInit+0x100>)
 8001274:	4a3a      	ldr	r2, [pc, #232]	; (8001360 <I2CInit+0x100>)
 8001276:	6c12      	ldr	r2, [r2, #64]	; 0x40
 8001278:	f442 1200 	orr.w	r2, r2, #2097152	; 0x200000
 800127c:	641a      	str	r2, [r3, #64]	; 0x40
 800127e:	e016      	b.n	80012ae <I2CInit+0x4e>
 8001280:	687b      	ldr	r3, [r7, #4]
 8001282:	681a      	ldr	r2, [r3, #0]
 8001284:	4b37      	ldr	r3, [pc, #220]	; (8001364 <I2CInit+0x104>)
 8001286:	429a      	cmp	r2, r3
 8001288:	d106      	bne.n	8001298 <I2CInit+0x38>
 800128a:	4b35      	ldr	r3, [pc, #212]	; (8001360 <I2CInit+0x100>)
 800128c:	4a34      	ldr	r2, [pc, #208]	; (8001360 <I2CInit+0x100>)
 800128e:	6c12      	ldr	r2, [r2, #64]	; 0x40
 8001290:	f442 0280 	orr.w	r2, r2, #4194304	; 0x400000
 8001294:	641a      	str	r2, [r3, #64]	; 0x40
 8001296:	e00a      	b.n	80012ae <I2CInit+0x4e>
 8001298:	687b      	ldr	r3, [r7, #4]
 800129a:	681a      	ldr	r2, [r3, #0]
 800129c:	4b32      	ldr	r3, [pc, #200]	; (8001368 <I2CInit+0x108>)
 800129e:	429a      	cmp	r2, r3
 80012a0:	d105      	bne.n	80012ae <I2CInit+0x4e>
 80012a2:	4b2f      	ldr	r3, [pc, #188]	; (8001360 <I2CInit+0x100>)
 80012a4:	4a2e      	ldr	r2, [pc, #184]	; (8001360 <I2CInit+0x100>)
 80012a6:	6c12      	ldr	r2, [r2, #64]	; 0x40
 80012a8:	f442 0200 	orr.w	r2, r2, #8388608	; 0x800000
 80012ac:	641a      	str	r2, [r3, #64]	; 0x40
 80012ae:	687b      	ldr	r3, [r7, #4]
 80012b0:	681b      	ldr	r3, [r3, #0]
 80012b2:	687a      	ldr	r2, [r7, #4]
 80012b4:	6812      	ldr	r2, [r2, #0]
 80012b6:	6852      	ldr	r2, [r2, #4]
 80012b8:	f022 023f 	bic.w	r2, r2, #63	; 0x3f
 80012bc:	605a      	str	r2, [r3, #4]
 80012be:	f000 fc37 	bl	8001b30 <rccGetApb1Prescaler>
 80012c2:	4603      	mov	r3, r0
 80012c4:	22a8      	movs	r2, #168	; 0xa8
 80012c6:	fb92 f3f3 	sdiv	r3, r2, r3
 80012ca:	60fb      	str	r3, [r7, #12]
 80012cc:	687b      	ldr	r3, [r7, #4]
 80012ce:	681c      	ldr	r4, [r3, #0]
 80012d0:	687b      	ldr	r3, [r7, #4]
 80012d2:	681b      	ldr	r3, [r3, #0]
 80012d4:	685d      	ldr	r5, [r3, #4]
 80012d6:	f000 fc2b 	bl	8001b30 <rccGetApb1Prescaler>
 80012da:	4603      	mov	r3, r0
 80012dc:	22a8      	movs	r2, #168	; 0xa8
 80012de:	fb92 f3f3 	sdiv	r3, r2, r3
 80012e2:	432b      	orrs	r3, r5
 80012e4:	6063      	str	r3, [r4, #4]
 80012e6:	687b      	ldr	r3, [r7, #4]
 80012e8:	681b      	ldr	r3, [r3, #0]
 80012ea:	687a      	ldr	r2, [r7, #4]
 80012ec:	6812      	ldr	r2, [r2, #0]
 80012ee:	6852      	ldr	r2, [r2, #4]
 80012f0:	f442 7280 	orr.w	r2, r2, #256	; 0x100
 80012f4:	605a      	str	r2, [r3, #4]
 80012f6:	687b      	ldr	r3, [r7, #4]
 80012f8:	681b      	ldr	r3, [r3, #0]
 80012fa:	687a      	ldr	r2, [r7, #4]
 80012fc:	6812      	ldr	r2, [r2, #0]
 80012fe:	69d2      	ldr	r2, [r2, #28]
 8001300:	f442 4200 	orr.w	r2, r2, #32768	; 0x8000
 8001304:	61da      	str	r2, [r3, #28]
 8001306:	687b      	ldr	r3, [r7, #4]
 8001308:	681c      	ldr	r4, [r3, #0]
 800130a:	687b      	ldr	r3, [r7, #4]
 800130c:	681b      	ldr	r3, [r3, #0]
 800130e:	69dd      	ldr	r5, [r3, #28]
 8001310:	f000 fc0e 	bl	8001b30 <rccGetApb1Prescaler>
 8001314:	4603      	mov	r3, r0
 8001316:	f64d 22c0 	movw	r2, #56000	; 0xdac0
 800131a:	fb92 f3f3 	sdiv	r3, r2, r3
 800131e:	4a13      	ldr	r2, [pc, #76]	; (800136c <I2CInit+0x10c>)
 8001320:	fb82 1203 	smull	r1, r2, r2, r3
 8001324:	1152      	asrs	r2, r2, #5
 8001326:	17db      	asrs	r3, r3, #31
 8001328:	1ad3      	subs	r3, r2, r3
 800132a:	ee07 3a10 	vmov	s14, r3
 800132e:	eef8 7ac7 	vcvt.f32.s32	s15, s14
 8001332:	eeb0 0a67 	vmov.f32	s0, s15
 8001336:	f007 fa39 	bl	80087ac <ceilf>
 800133a:	eef0 7a40 	vmov.f32	s15, s0
 800133e:	eefc 7ae7 	vcvt.u32.f32	s15, s15
 8001342:	ee17 3a90 	vmov	r3, s15
 8001346:	432b      	orrs	r3, r5
 8001348:	61e3      	str	r3, [r4, #28]
 800134a:	687b      	ldr	r3, [r7, #4]
 800134c:	681b      	ldr	r3, [r3, #0]
 800134e:	220f      	movs	r2, #15
 8001350:	621a      	str	r2, [r3, #32]
 8001352:	bf00      	nop
 8001354:	3710      	adds	r7, #16
 8001356:	46bd      	mov	sp, r7
 8001358:	bdb0      	pop	{r4, r5, r7, pc}
 800135a:	bf00      	nop
 800135c:	40005400 	.word	0x40005400
 8001360:	40023800 	.word	0x40023800
 8001364:	40005800 	.word	0x40005800
 8001368:	40005c00 	.word	0x40005c00
 800136c:	1b4e81b5 	.word	0x1b4e81b5

08001370 <I2CEnable>:
 8001370:	b480      	push	{r7}
 8001372:	b083      	sub	sp, #12
 8001374:	af00      	add	r7, sp, #0
 8001376:	6078      	str	r0, [r7, #4]
 8001378:	687b      	ldr	r3, [r7, #4]
 800137a:	681b      	ldr	r3, [r3, #0]
 800137c:	f043 0201 	orr.w	r2, r3, #1
 8001380:	687b      	ldr	r3, [r7, #4]
 8001382:	601a      	str	r2, [r3, #0]
 8001384:	bf00      	nop
 8001386:	370c      	adds	r7, #12
 8001388:	46bd      	mov	sp, r7
 800138a:	f85d 7b04 	ldr.w	r7, [sp], #4
 800138e:	4770      	bx	lr

08001390 <I2CDisable>:
 8001390:	b480      	push	{r7}
 8001392:	b083      	sub	sp, #12
 8001394:	af00      	add	r7, sp, #0
 8001396:	6078      	str	r0, [r7, #4]
 8001398:	687b      	ldr	r3, [r7, #4]
 800139a:	681b      	ldr	r3, [r3, #0]
 800139c:	f023 0201 	bic.w	r2, r3, #1
 80013a0:	687b      	ldr	r3, [r7, #4]
 80013a2:	601a      	str	r2, [r3, #0]
 80013a4:	370c      	adds	r7, #12
 80013a6:	46bd      	mov	sp, r7
 80013a8:	f85d 7b04 	ldr.w	r7, [sp], #4
 80013ac:	4770      	bx	lr
 80013ae:	bf00      	nop

080013b0 <I2CReset>:
 80013b0:	b580      	push	{r7, lr}
 80013b2:	b084      	sub	sp, #16
 80013b4:	af02      	add	r7, sp, #8
 80013b6:	6078      	str	r0, [r7, #4]
 80013b8:	687b      	ldr	r3, [r7, #4]
 80013ba:	681b      	ldr	r3, [r3, #0]
 80013bc:	4618      	mov	r0, r3
 80013be:	f7ff ffe7 	bl	8001390 <I2CDisable>
 80013c2:	2300      	movs	r3, #0
 80013c4:	9300      	str	r3, [sp, #0]
 80013c6:	4834      	ldr	r0, [pc, #208]	; (8001498 <I2CReset+0xe8>)
 80013c8:	210a      	movs	r1, #10
 80013ca:	2201      	movs	r2, #1
 80013cc:	2301      	movs	r3, #1
 80013ce:	f7ff fe8d 	bl	80010ec <gpioInitPin>
 80013d2:	4831      	ldr	r0, [pc, #196]	; (8001498 <I2CReset+0xe8>)
 80013d4:	210a      	movs	r1, #10
 80013d6:	2201      	movs	r2, #1
 80013d8:	f7ff ff1a 	bl	8001210 <gpioPinSetLevel>
 80013dc:	2300      	movs	r3, #0
 80013de:	9300      	str	r3, [sp, #0]
 80013e0:	482d      	ldr	r0, [pc, #180]	; (8001498 <I2CReset+0xe8>)
 80013e2:	210b      	movs	r1, #11
 80013e4:	2201      	movs	r2, #1
 80013e6:	2301      	movs	r3, #1
 80013e8:	f7ff fe80 	bl	80010ec <gpioInitPin>
 80013ec:	482a      	ldr	r0, [pc, #168]	; (8001498 <I2CReset+0xe8>)
 80013ee:	210b      	movs	r1, #11
 80013f0:	2201      	movs	r2, #1
 80013f2:	f7ff ff0d 	bl	8001210 <gpioPinSetLevel>
 80013f6:	2003      	movs	r0, #3
 80013f8:	f001 fc44 	bl	8002c84 <delayInTenthOfMs>
 80013fc:	4826      	ldr	r0, [pc, #152]	; (8001498 <I2CReset+0xe8>)
 80013fe:	210b      	movs	r1, #11
 8001400:	2200      	movs	r2, #0
 8001402:	f7ff ff05 	bl	8001210 <gpioPinSetLevel>
 8001406:	2003      	movs	r0, #3
 8001408:	f001 fc3c 	bl	8002c84 <delayInTenthOfMs>
 800140c:	4822      	ldr	r0, [pc, #136]	; (8001498 <I2CReset+0xe8>)
 800140e:	210a      	movs	r1, #10
 8001410:	2200      	movs	r2, #0
 8001412:	f7ff fefd 	bl	8001210 <gpioPinSetLevel>
 8001416:	2003      	movs	r0, #3
 8001418:	f001 fc34 	bl	8002c84 <delayInTenthOfMs>
 800141c:	481e      	ldr	r0, [pc, #120]	; (8001498 <I2CReset+0xe8>)
 800141e:	210a      	movs	r1, #10
 8001420:	2201      	movs	r2, #1
 8001422:	f7ff fef5 	bl	8001210 <gpioPinSetLevel>
 8001426:	2003      	movs	r0, #3
 8001428:	f001 fc2c 	bl	8002c84 <delayInTenthOfMs>
 800142c:	481a      	ldr	r0, [pc, #104]	; (8001498 <I2CReset+0xe8>)
 800142e:	210b      	movs	r1, #11
 8001430:	2201      	movs	r2, #1
 8001432:	f7ff feed 	bl	8001210 <gpioPinSetLevel>
 8001436:	2003      	movs	r0, #3
 8001438:	f001 fc24 	bl	8002c84 <delayInTenthOfMs>
 800143c:	4816      	ldr	r0, [pc, #88]	; (8001498 <I2CReset+0xe8>)
 800143e:	210a      	movs	r1, #10
 8001440:	2204      	movs	r2, #4
 8001442:	f7ff fe99 	bl	8001178 <gpioInitPinAf>
 8001446:	4814      	ldr	r0, [pc, #80]	; (8001498 <I2CReset+0xe8>)
 8001448:	210b      	movs	r1, #11
 800144a:	2204      	movs	r2, #4
 800144c:	f7ff fe94 	bl	8001178 <gpioInitPinAf>
 8001450:	687b      	ldr	r3, [r7, #4]
 8001452:	681b      	ldr	r3, [r3, #0]
 8001454:	687a      	ldr	r2, [r7, #4]
 8001456:	6812      	ldr	r2, [r2, #0]
 8001458:	6812      	ldr	r2, [r2, #0]
 800145a:	f442 4200 	orr.w	r2, r2, #32768	; 0x8000
 800145e:	601a      	str	r2, [r3, #0]
 8001460:	687b      	ldr	r3, [r7, #4]
 8001462:	681b      	ldr	r3, [r3, #0]
 8001464:	687a      	ldr	r2, [r7, #4]
 8001466:	6812      	ldr	r2, [r2, #0]
 8001468:	6812      	ldr	r2, [r2, #0]
 800146a:	f482 4200 	eor.w	r2, r2, #32768	; 0x8000
 800146e:	601a      	str	r2, [r3, #0]
 8001470:	687b      	ldr	r3, [r7, #4]
 8001472:	681b      	ldr	r3, [r3, #0]
 8001474:	4618      	mov	r0, r3
 8001476:	f7ff ff7b 	bl	8001370 <I2CEnable>
 800147a:	6878      	ldr	r0, [r7, #4]
 800147c:	f7ff fef0 	bl	8001260 <I2CInit>
 8001480:	f001 fbbc 	bl	8002bfc <getLocalTime>
 8001484:	4602      	mov	r2, r0
 8001486:	687b      	ldr	r3, [r7, #4]
 8001488:	609a      	str	r2, [r3, #8]
 800148a:	687b      	ldr	r3, [r7, #4]
 800148c:	2200      	movs	r2, #0
 800148e:	711a      	strb	r2, [r3, #4]
 8001490:	bf00      	nop
 8001492:	3708      	adds	r7, #8
 8001494:	46bd      	mov	sp, r7
 8001496:	bd80      	pop	{r7, pc}
 8001498:	40020400 	.word	0x40020400

0800149c <I2CStop>:
 800149c:	b480      	push	{r7}
 800149e:	b083      	sub	sp, #12
 80014a0:	af00      	add	r7, sp, #0
 80014a2:	6078      	str	r0, [r7, #4]
 80014a4:	687b      	ldr	r3, [r7, #4]
 80014a6:	681b      	ldr	r3, [r3, #0]
 80014a8:	f443 7200 	orr.w	r2, r3, #512	; 0x200
 80014ac:	687b      	ldr	r3, [r7, #4]
 80014ae:	601a      	str	r2, [r3, #0]
 80014b0:	bf00      	nop
 80014b2:	370c      	adds	r7, #12
 80014b4:	46bd      	mov	sp, r7
 80014b6:	f85d 7b04 	ldr.w	r7, [sp], #4
 80014ba:	4770      	bx	lr

080014bc <I2CSetAck>:
 80014bc:	b480      	push	{r7}
 80014be:	b083      	sub	sp, #12
 80014c0:	af00      	add	r7, sp, #0
 80014c2:	6078      	str	r0, [r7, #4]
 80014c4:	687b      	ldr	r3, [r7, #4]
 80014c6:	681b      	ldr	r3, [r3, #0]
 80014c8:	f443 6280 	orr.w	r2, r3, #1024	; 0x400
 80014cc:	687b      	ldr	r3, [r7, #4]
 80014ce:	601a      	str	r2, [r3, #0]
 80014d0:	bf00      	nop
 80014d2:	370c      	adds	r7, #12
 80014d4:	46bd      	mov	sp, r7
 80014d6:	f85d 7b04 	ldr.w	r7, [sp], #4
 80014da:	4770      	bx	lr

080014dc <I2CUnSetAck>:
 80014dc:	b480      	push	{r7}
 80014de:	b083      	sub	sp, #12
 80014e0:	af00      	add	r7, sp, #0
 80014e2:	6078      	str	r0, [r7, #4]
 80014e4:	687b      	ldr	r3, [r7, #4]
 80014e6:	681b      	ldr	r3, [r3, #0]
 80014e8:	f423 6280 	bic.w	r2, r3, #1024	; 0x400
 80014ec:	687b      	ldr	r3, [r7, #4]
 80014ee:	601a      	str	r2, [r3, #0]
 80014f0:	bf00      	nop
 80014f2:	370c      	adds	r7, #12
 80014f4:	46bd      	mov	sp, r7
 80014f6:	f85d 7b04 	ldr.w	r7, [sp], #4
 80014fa:	4770      	bx	lr

080014fc <I2CClearAddrFlag>:
 80014fc:	b480      	push	{r7}
 80014fe:	b083      	sub	sp, #12
 8001500:	af00      	add	r7, sp, #0
 8001502:	6078      	str	r0, [r7, #4]
 8001504:	687b      	ldr	r3, [r7, #4]
 8001506:	699b      	ldr	r3, [r3, #24]
 8001508:	bf00      	nop
 800150a:	370c      	adds	r7, #12
 800150c:	46bd      	mov	sp, r7
 800150e:	f85d 7b04 	ldr.w	r7, [sp], #4
 8001512:	4770      	bx	lr

08001514 <I2CSetPOS>:
 8001514:	b480      	push	{r7}
 8001516:	b083      	sub	sp, #12
 8001518:	af00      	add	r7, sp, #0
 800151a:	6078      	str	r0, [r7, #4]
 800151c:	687b      	ldr	r3, [r7, #4]
 800151e:	681b      	ldr	r3, [r3, #0]
 8001520:	f443 6200 	orr.w	r2, r3, #2048	; 0x800
 8001524:	687b      	ldr	r3, [r7, #4]
 8001526:	601a      	str	r2, [r3, #0]
 8001528:	bf00      	nop
 800152a:	370c      	adds	r7, #12
 800152c:	46bd      	mov	sp, r7
 800152e:	f85d 7b04 	ldr.w	r7, [sp], #4
 8001532:	4770      	bx	lr

08001534 <I2CUnSetPOS>:
 8001534:	b480      	push	{r7}
 8001536:	b083      	sub	sp, #12
 8001538:	af00      	add	r7, sp, #0
 800153a:	6078      	str	r0, [r7, #4]
 800153c:	687b      	ldr	r3, [r7, #4]
 800153e:	681b      	ldr	r3, [r3, #0]
 8001540:	f423 6200 	bic.w	r2, r3, #2048	; 0x800
 8001544:	687b      	ldr	r3, [r7, #4]
 8001546:	601a      	str	r2, [r3, #0]
 8001548:	bf00      	nop
 800154a:	370c      	adds	r7, #12
 800154c:	46bd      	mov	sp, r7
 800154e:	f85d 7b04 	ldr.w	r7, [sp], #4
 8001552:	4770      	bx	lr

08001554 <I2CReadDR>:
 8001554:	b480      	push	{r7}
 8001556:	b083      	sub	sp, #12
 8001558:	af00      	add	r7, sp, #0
 800155a:	6078      	str	r0, [r7, #4]
 800155c:	6039      	str	r1, [r7, #0]
 800155e:	687b      	ldr	r3, [r7, #4]
 8001560:	691b      	ldr	r3, [r3, #16]
 8001562:	b2da      	uxtb	r2, r3
 8001564:	683b      	ldr	r3, [r7, #0]
 8001566:	701a      	strb	r2, [r3, #0]
 8001568:	bf00      	nop
 800156a:	370c      	adds	r7, #12
 800156c:	46bd      	mov	sp, r7
 800156e:	f85d 7b04 	ldr.w	r7, [sp], #4
 8001572:	4770      	bx	lr

08001574 <I2CStart>:
 8001574:	b580      	push	{r7, lr}
 8001576:	b084      	sub	sp, #16
 8001578:	af00      	add	r7, sp, #0
 800157a:	6078      	str	r0, [r7, #4]
 800157c:	f001 fb3e 	bl	8002bfc <getLocalTime>
 8001580:	60f8      	str	r0, [r7, #12]
 8001582:	687b      	ldr	r3, [r7, #4]
 8001584:	681b      	ldr	r3, [r3, #0]
 8001586:	687a      	ldr	r2, [r7, #4]
 8001588:	6812      	ldr	r2, [r2, #0]
 800158a:	6812      	ldr	r2, [r2, #0]
 800158c:	f442 7280 	orr.w	r2, r2, #256	; 0x100
 8001590:	601a      	str	r2, [r3, #0]
 8001592:	e022      	b.n	80015da <I2CStart+0x66>
 8001594:	687b      	ldr	r3, [r7, #4]
 8001596:	791b      	ldrb	r3, [r3, #4]
 8001598:	2b00      	cmp	r3, #0
 800159a:	d00a      	beq.n	80015b2 <I2CStart+0x3e>
 800159c:	4b16      	ldr	r3, [pc, #88]	; (80015f8 <I2CStart+0x84>)
 800159e:	681b      	ldr	r3, [r3, #0]
 80015a0:	4618      	mov	r0, r3
 80015a2:	f7ff ff7b 	bl	800149c <I2CStop>
 80015a6:	4814      	ldr	r0, [pc, #80]	; (80015f8 <I2CStart+0x84>)
 80015a8:	f000 f8e0 	bl	800176c <I2CWaitForStopToBeCleared>
 80015ac:	687b      	ldr	r3, [r7, #4]
 80015ae:	791b      	ldrb	r3, [r3, #4]
 80015b0:	e01e      	b.n	80015f0 <I2CStart+0x7c>
 80015b2:	68f8      	ldr	r0, [r7, #12]
 80015b4:	210a      	movs	r1, #10
 80015b6:	f001 fb51 	bl	8002c5c <checkTimeout>
 80015ba:	4603      	mov	r3, r0
 80015bc:	2b00      	cmp	r3, #0
 80015be:	d00c      	beq.n	80015da <I2CStart+0x66>
 80015c0:	4b0d      	ldr	r3, [pc, #52]	; (80015f8 <I2CStart+0x84>)
 80015c2:	681b      	ldr	r3, [r3, #0]
 80015c4:	4618      	mov	r0, r3
 80015c6:	f7ff ff69 	bl	800149c <I2CStop>
 80015ca:	480b      	ldr	r0, [pc, #44]	; (80015f8 <I2CStart+0x84>)
 80015cc:	f000 f8ce 	bl	800176c <I2CWaitForStopToBeCleared>
 80015d0:	687b      	ldr	r3, [r7, #4]
 80015d2:	2202      	movs	r2, #2
 80015d4:	711a      	strb	r2, [r3, #4]
 80015d6:	2302      	movs	r3, #2
 80015d8:	e00a      	b.n	80015f0 <I2CStart+0x7c>
 80015da:	687b      	ldr	r3, [r7, #4]
 80015dc:	681b      	ldr	r3, [r3, #0]
 80015de:	695b      	ldr	r3, [r3, #20]
 80015e0:	f003 0301 	and.w	r3, r3, #1
 80015e4:	2b00      	cmp	r3, #0
 80015e6:	d0d5      	beq.n	8001594 <I2CStart+0x20>
 80015e8:	687b      	ldr	r3, [r7, #4]
 80015ea:	681b      	ldr	r3, [r3, #0]
 80015ec:	695b      	ldr	r3, [r3, #20]
 80015ee:	2300      	movs	r3, #0
 80015f0:	4618      	mov	r0, r3
 80015f2:	3710      	adds	r7, #16
 80015f4:	46bd      	mov	sp, r7
 80015f6:	bd80      	pop	{r7, pc}
 80015f8:	20014d90 	.word	0x20014d90

080015fc <I2CSendAddr>:
 80015fc:	b580      	push	{r7, lr}
 80015fe:	b084      	sub	sp, #16
 8001600:	af00      	add	r7, sp, #0
 8001602:	6078      	str	r0, [r7, #4]
 8001604:	4613      	mov	r3, r2
 8001606:	460a      	mov	r2, r1
 8001608:	70fa      	strb	r2, [r7, #3]
 800160a:	70bb      	strb	r3, [r7, #2]
 800160c:	f001 faf6 	bl	8002bfc <getLocalTime>
 8001610:	60f8      	str	r0, [r7, #12]
 8001612:	687b      	ldr	r3, [r7, #4]
 8001614:	681b      	ldr	r3, [r3, #0]
 8001616:	78fa      	ldrb	r2, [r7, #3]
 8001618:	0051      	lsls	r1, r2, #1
 800161a:	78ba      	ldrb	r2, [r7, #2]
 800161c:	430a      	orrs	r2, r1
 800161e:	611a      	str	r2, [r3, #16]
 8001620:	e022      	b.n	8001668 <I2CSendAddr+0x6c>
 8001622:	687b      	ldr	r3, [r7, #4]
 8001624:	791b      	ldrb	r3, [r3, #4]
 8001626:	2b00      	cmp	r3, #0
 8001628:	d00a      	beq.n	8001640 <I2CSendAddr+0x44>
 800162a:	4b15      	ldr	r3, [pc, #84]	; (8001680 <I2CSendAddr+0x84>)
 800162c:	681b      	ldr	r3, [r3, #0]
 800162e:	4618      	mov	r0, r3
 8001630:	f7ff ff34 	bl	800149c <I2CStop>
 8001634:	4812      	ldr	r0, [pc, #72]	; (8001680 <I2CSendAddr+0x84>)
 8001636:	f000 f899 	bl	800176c <I2CWaitForStopToBeCleared>
 800163a:	687b      	ldr	r3, [r7, #4]
 800163c:	791b      	ldrb	r3, [r3, #4]
 800163e:	e01b      	b.n	8001678 <I2CSendAddr+0x7c>
 8001640:	68f8      	ldr	r0, [r7, #12]
 8001642:	210a      	movs	r1, #10
 8001644:	f001 fb0a 	bl	8002c5c <checkTimeout>
 8001648:	4603      	mov	r3, r0
 800164a:	2b00      	cmp	r3, #0
 800164c:	d00c      	beq.n	8001668 <I2CSendAddr+0x6c>
 800164e:	4b0c      	ldr	r3, [pc, #48]	; (8001680 <I2CSendAddr+0x84>)
 8001650:	681b      	ldr	r3, [r3, #0]
 8001652:	4618      	mov	r0, r3
 8001654:	f7ff ff22 	bl	800149c <I2CStop>
 8001658:	4809      	ldr	r0, [pc, #36]	; (8001680 <I2CSendAddr+0x84>)
 800165a:	f000 f887 	bl	800176c <I2CWaitForStopToBeCleared>
 800165e:	687b      	ldr	r3, [r7, #4]
 8001660:	2202      	movs	r2, #2
 8001662:	711a      	strb	r2, [r3, #4]
 8001664:	2302      	movs	r3, #2
 8001666:	e007      	b.n	8001678 <I2CSendAddr+0x7c>
 8001668:	687b      	ldr	r3, [r7, #4]
 800166a:	681b      	ldr	r3, [r3, #0]
 800166c:	695b      	ldr	r3, [r3, #20]
 800166e:	f003 0302 	and.w	r3, r3, #2
 8001672:	2b00      	cmp	r3, #0
 8001674:	d0d5      	beq.n	8001622 <I2CSendAddr+0x26>
 8001676:	2300      	movs	r3, #0
 8001678:	4618      	mov	r0, r3
 800167a:	3710      	adds	r7, #16
 800167c:	46bd      	mov	sp, r7
 800167e:	bd80      	pop	{r7, pc}
 8001680:	20014d90 	.word	0x20014d90

08001684 <I2CWaitForByte>:
 8001684:	b580      	push	{r7, lr}
 8001686:	b084      	sub	sp, #16
 8001688:	af00      	add	r7, sp, #0
 800168a:	6078      	str	r0, [r7, #4]
 800168c:	f001 fab6 	bl	8002bfc <getLocalTime>
 8001690:	60f8      	str	r0, [r7, #12]
 8001692:	e022      	b.n	80016da <I2CWaitForByte+0x56>
 8001694:	687b      	ldr	r3, [r7, #4]
 8001696:	791b      	ldrb	r3, [r3, #4]
 8001698:	2b00      	cmp	r3, #0
 800169a:	d00a      	beq.n	80016b2 <I2CWaitForByte+0x2e>
 800169c:	4b15      	ldr	r3, [pc, #84]	; (80016f4 <I2CWaitForByte+0x70>)
 800169e:	681b      	ldr	r3, [r3, #0]
 80016a0:	4618      	mov	r0, r3
 80016a2:	f7ff fefb 	bl	800149c <I2CStop>
 80016a6:	4813      	ldr	r0, [pc, #76]	; (80016f4 <I2CWaitForByte+0x70>)
 80016a8:	f000 f860 	bl	800176c <I2CWaitForStopToBeCleared>
 80016ac:	687b      	ldr	r3, [r7, #4]
 80016ae:	791b      	ldrb	r3, [r3, #4]
 80016b0:	e01b      	b.n	80016ea <I2CWaitForByte+0x66>
 80016b2:	68f8      	ldr	r0, [r7, #12]
 80016b4:	210a      	movs	r1, #10
 80016b6:	f001 fad1 	bl	8002c5c <checkTimeout>
 80016ba:	4603      	mov	r3, r0
 80016bc:	2b00      	cmp	r3, #0
 80016be:	d00c      	beq.n	80016da <I2CWaitForByte+0x56>
 80016c0:	4b0c      	ldr	r3, [pc, #48]	; (80016f4 <I2CWaitForByte+0x70>)
 80016c2:	681b      	ldr	r3, [r3, #0]
 80016c4:	4618      	mov	r0, r3
 80016c6:	f7ff fee9 	bl	800149c <I2CStop>
 80016ca:	480a      	ldr	r0, [pc, #40]	; (80016f4 <I2CWaitForByte+0x70>)
 80016cc:	f000 f84e 	bl	800176c <I2CWaitForStopToBeCleared>
 80016d0:	687b      	ldr	r3, [r7, #4]
 80016d2:	2202      	movs	r2, #2
 80016d4:	711a      	strb	r2, [r3, #4]
 80016d6:	2302      	movs	r3, #2
 80016d8:	e007      	b.n	80016ea <I2CWaitForByte+0x66>
 80016da:	687b      	ldr	r3, [r7, #4]
 80016dc:	681b      	ldr	r3, [r3, #0]
 80016de:	695b      	ldr	r3, [r3, #20]
 80016e0:	f003 0340 	and.w	r3, r3, #64	; 0x40
 80016e4:	2b00      	cmp	r3, #0
 80016e6:	d0d5      	beq.n	8001694 <I2CWaitForByte+0x10>
 80016e8:	2300      	movs	r3, #0
 80016ea:	4618      	mov	r0, r3
 80016ec:	3710      	adds	r7, #16
 80016ee:	46bd      	mov	sp, r7
 80016f0:	bd80      	pop	{r7, pc}
 80016f2:	bf00      	nop
 80016f4:	20014d90 	.word	0x20014d90

080016f8 <I2CWaitForBTF>:
 80016f8:	b580      	push	{r7, lr}
 80016fa:	b084      	sub	sp, #16
 80016fc:	af00      	add	r7, sp, #0
 80016fe:	6078      	str	r0, [r7, #4]
 8001700:	f001 fa7c 	bl	8002bfc <getLocalTime>
 8001704:	60f8      	str	r0, [r7, #12]
 8001706:	e022      	b.n	800174e <I2CWaitForBTF+0x56>
 8001708:	687b      	ldr	r3, [r7, #4]
 800170a:	791b      	ldrb	r3, [r3, #4]
 800170c:	2b00      	cmp	r3, #0
 800170e:	d00a      	beq.n	8001726 <I2CWaitForBTF+0x2e>
 8001710:	4b15      	ldr	r3, [pc, #84]	; (8001768 <I2CWaitForBTF+0x70>)
 8001712:	681b      	ldr	r3, [r3, #0]
 8001714:	4618      	mov	r0, r3
 8001716:	f7ff fec1 	bl	800149c <I2CStop>
 800171a:	4813      	ldr	r0, [pc, #76]	; (8001768 <I2CWaitForBTF+0x70>)
 800171c:	f000 f826 	bl	800176c <I2CWaitForStopToBeCleared>
 8001720:	687b      	ldr	r3, [r7, #4]
 8001722:	791b      	ldrb	r3, [r3, #4]
 8001724:	e01b      	b.n	800175e <I2CWaitForBTF+0x66>
 8001726:	68f8      	ldr	r0, [r7, #12]
 8001728:	210a      	movs	r1, #10
 800172a:	f001 fa97 	bl	8002c5c <checkTimeout>
 800172e:	4603      	mov	r3, r0
 8001730:	2b00      	cmp	r3, #0
 8001732:	d00c      	beq.n	800174e <I2CWaitForBTF+0x56>
 8001734:	4b0c      	ldr	r3, [pc, #48]	; (8001768 <I2CWaitForBTF+0x70>)
 8001736:	681b      	ldr	r3, [r3, #0]
 8001738:	4618      	mov	r0, r3
 800173a:	f7ff feaf 	bl	800149c <I2CStop>
 800173e:	480a      	ldr	r0, [pc, #40]	; (8001768 <I2CWaitForBTF+0x70>)
 8001740:	f000 f814 	bl	800176c <I2CWaitForStopToBeCleared>
 8001744:	687b      	ldr	r3, [r7, #4]
 8001746:	2202      	movs	r2, #2
 8001748:	711a      	strb	r2, [r3, #4]
 800174a:	2302      	movs	r3, #2
 800174c:	e007      	b.n	800175e <I2CWaitForBTF+0x66>
 800174e:	687b      	ldr	r3, [r7, #4]
 8001750:	681b      	ldr	r3, [r3, #0]
 8001752:	695b      	ldr	r3, [r3, #20]
 8001754:	f003 0304 	and.w	r3, r3, #4
 8001758:	2b00      	cmp	r3, #0
 800175a:	d0d5      	beq.n	8001708 <I2CWaitForBTF+0x10>
 800175c:	2300      	movs	r3, #0
 800175e:	4618      	mov	r0, r3
 8001760:	3710      	adds	r7, #16
 8001762:	46bd      	mov	sp, r7
 8001764:	bd80      	pop	{r7, pc}
 8001766:	bf00      	nop
 8001768:	20014d90 	.word	0x20014d90

0800176c <I2CWaitForStopToBeCleared>:
 800176c:	b580      	push	{r7, lr}
 800176e:	b084      	sub	sp, #16
 8001770:	af00      	add	r7, sp, #0
 8001772:	6078      	str	r0, [r7, #4]
 8001774:	f001 fa42 	bl	8002bfc <getLocalTime>
 8001778:	60f8      	str	r0, [r7, #12]
 800177a:	e012      	b.n	80017a2 <I2CWaitForStopToBeCleared+0x36>
 800177c:	687b      	ldr	r3, [r7, #4]
 800177e:	791b      	ldrb	r3, [r3, #4]
 8001780:	2b00      	cmp	r3, #0
 8001782:	d002      	beq.n	800178a <I2CWaitForStopToBeCleared+0x1e>
 8001784:	687b      	ldr	r3, [r7, #4]
 8001786:	791b      	ldrb	r3, [r3, #4]
 8001788:	e013      	b.n	80017b2 <I2CWaitForStopToBeCleared+0x46>
 800178a:	68f8      	ldr	r0, [r7, #12]
 800178c:	210a      	movs	r1, #10
 800178e:	f001 fa65 	bl	8002c5c <checkTimeout>
 8001792:	4603      	mov	r3, r0
 8001794:	2b00      	cmp	r3, #0
 8001796:	d004      	beq.n	80017a2 <I2CWaitForStopToBeCleared+0x36>
 8001798:	687b      	ldr	r3, [r7, #4]
 800179a:	2202      	movs	r2, #2
 800179c:	711a      	strb	r2, [r3, #4]
 800179e:	2302      	movs	r3, #2
 80017a0:	e007      	b.n	80017b2 <I2CWaitForStopToBeCleared+0x46>
 80017a2:	687b      	ldr	r3, [r7, #4]
 80017a4:	681b      	ldr	r3, [r3, #0]
 80017a6:	681b      	ldr	r3, [r3, #0]
 80017a8:	f403 7300 	and.w	r3, r3, #512	; 0x200
 80017ac:	2b00      	cmp	r3, #0
 80017ae:	d1e5      	bne.n	800177c <I2CWaitForStopToBeCleared+0x10>
 80017b0:	2300      	movs	r3, #0
 80017b2:	4618      	mov	r0, r3
 80017b4:	3710      	adds	r7, #16
 80017b6:	46bd      	mov	sp, r7
 80017b8:	bd80      	pop	{r7, pc}
 80017ba:	bf00      	nop

080017bc <I2CWaitBusyLine>:
 80017bc:	b580      	push	{r7, lr}
 80017be:	b084      	sub	sp, #16
 80017c0:	af00      	add	r7, sp, #0
 80017c2:	6078      	str	r0, [r7, #4]
 80017c4:	f001 fa1a 	bl	8002bfc <getLocalTime>
 80017c8:	60f8      	str	r0, [r7, #12]
 80017ca:	e022      	b.n	8001812 <I2CWaitBusyLine+0x56>
 80017cc:	687b      	ldr	r3, [r7, #4]
 80017ce:	791b      	ldrb	r3, [r3, #4]
 80017d0:	2b00      	cmp	r3, #0
 80017d2:	d00a      	beq.n	80017ea <I2CWaitBusyLine+0x2e>
 80017d4:	4b15      	ldr	r3, [pc, #84]	; (800182c <I2CWaitBusyLine+0x70>)
 80017d6:	681b      	ldr	r3, [r3, #0]
 80017d8:	4618      	mov	r0, r3
 80017da:	f7ff fe5f 	bl	800149c <I2CStop>
 80017de:	4813      	ldr	r0, [pc, #76]	; (800182c <I2CWaitBusyLine+0x70>)
 80017e0:	f7ff ffc4 	bl	800176c <I2CWaitForStopToBeCleared>
 80017e4:	687b      	ldr	r3, [r7, #4]
 80017e6:	791b      	ldrb	r3, [r3, #4]
 80017e8:	e01b      	b.n	8001822 <I2CWaitBusyLine+0x66>
 80017ea:	68f8      	ldr	r0, [r7, #12]
 80017ec:	210a      	movs	r1, #10
 80017ee:	f001 fa35 	bl	8002c5c <checkTimeout>
 80017f2:	4603      	mov	r3, r0
 80017f4:	2b00      	cmp	r3, #0
 80017f6:	d00c      	beq.n	8001812 <I2CWaitBusyLine+0x56>
 80017f8:	4b0c      	ldr	r3, [pc, #48]	; (800182c <I2CWaitBusyLine+0x70>)
 80017fa:	681b      	ldr	r3, [r3, #0]
 80017fc:	4618      	mov	r0, r3
 80017fe:	f7ff fe4d 	bl	800149c <I2CStop>
 8001802:	480a      	ldr	r0, [pc, #40]	; (800182c <I2CWaitBusyLine+0x70>)
 8001804:	f7ff ffb2 	bl	800176c <I2CWaitForStopToBeCleared>
 8001808:	687b      	ldr	r3, [r7, #4]
 800180a:	2202      	movs	r2, #2
 800180c:	711a      	strb	r2, [r3, #4]
 800180e:	2302      	movs	r3, #2
 8001810:	e007      	b.n	8001822 <I2CWaitBusyLine+0x66>
 8001812:	687b      	ldr	r3, [r7, #4]
 8001814:	681b      	ldr	r3, [r3, #0]
 8001816:	699b      	ldr	r3, [r3, #24]
 8001818:	f003 0302 	and.w	r3, r3, #2
 800181c:	2b00      	cmp	r3, #0
 800181e:	d1d5      	bne.n	80017cc <I2CWaitBusyLine+0x10>
 8001820:	2300      	movs	r3, #0
 8001822:	4618      	mov	r0, r3
 8001824:	3710      	adds	r7, #16
 8001826:	46bd      	mov	sp, r7
 8001828:	bd80      	pop	{r7, pc}
 800182a:	bf00      	nop
 800182c:	20014d90 	.word	0x20014d90

08001830 <I2CSendBytes>:
 8001830:	b580      	push	{r7, lr}
 8001832:	b086      	sub	sp, #24
 8001834:	af00      	add	r7, sp, #0
 8001836:	60f8      	str	r0, [r7, #12]
 8001838:	60b9      	str	r1, [r7, #8]
 800183a:	607a      	str	r2, [r7, #4]
 800183c:	70fb      	strb	r3, [r7, #3]
 800183e:	68bb      	ldr	r3, [r7, #8]
 8001840:	617b      	str	r3, [r7, #20]
 8001842:	68f8      	ldr	r0, [r7, #12]
 8001844:	f7ff ffba 	bl	80017bc <I2CWaitBusyLine>
 8001848:	4603      	mov	r3, r0
 800184a:	2b00      	cmp	r3, #0
 800184c:	d001      	beq.n	8001852 <I2CSendBytes+0x22>
 800184e:	2300      	movs	r3, #0
 8001850:	e03f      	b.n	80018d2 <I2CSendBytes+0xa2>
 8001852:	68f8      	ldr	r0, [r7, #12]
 8001854:	f7ff fe8e 	bl	8001574 <I2CStart>
 8001858:	4603      	mov	r3, r0
 800185a:	2b00      	cmp	r3, #0
 800185c:	d001      	beq.n	8001862 <I2CSendBytes+0x32>
 800185e:	2300      	movs	r3, #0
 8001860:	e037      	b.n	80018d2 <I2CSendBytes+0xa2>
 8001862:	78fb      	ldrb	r3, [r7, #3]
 8001864:	68f8      	ldr	r0, [r7, #12]
 8001866:	4619      	mov	r1, r3
 8001868:	2200      	movs	r2, #0
 800186a:	f7ff fec7 	bl	80015fc <I2CSendAddr>
 800186e:	4603      	mov	r3, r0
 8001870:	2b00      	cmp	r3, #0
 8001872:	d001      	beq.n	8001878 <I2CSendBytes+0x48>
 8001874:	2300      	movs	r3, #0
 8001876:	e02c      	b.n	80018d2 <I2CSendBytes+0xa2>
 8001878:	68fb      	ldr	r3, [r7, #12]
 800187a:	681b      	ldr	r3, [r3, #0]
 800187c:	4618      	mov	r0, r3
 800187e:	f7ff fe3d 	bl	80014fc <I2CClearAddrFlag>
 8001882:	e015      	b.n	80018b0 <I2CSendBytes+0x80>
 8001884:	68fb      	ldr	r3, [r7, #12]
 8001886:	681b      	ldr	r3, [r3, #0]
 8001888:	697a      	ldr	r2, [r7, #20]
 800188a:	7812      	ldrb	r2, [r2, #0]
 800188c:	611a      	str	r2, [r3, #16]
 800188e:	68f8      	ldr	r0, [r7, #12]
 8001890:	f7ff ff32 	bl	80016f8 <I2CWaitForBTF>
 8001894:	4603      	mov	r3, r0
 8001896:	2b00      	cmp	r3, #0
 8001898:	d001      	beq.n	800189e <I2CSendBytes+0x6e>
 800189a:	2300      	movs	r3, #0
 800189c:	e019      	b.n	80018d2 <I2CSendBytes+0xa2>
 800189e:	68fb      	ldr	r3, [r7, #12]
 80018a0:	681b      	ldr	r3, [r3, #0]
 80018a2:	695b      	ldr	r3, [r3, #20]
 80018a4:	697b      	ldr	r3, [r7, #20]
 80018a6:	3301      	adds	r3, #1
 80018a8:	617b      	str	r3, [r7, #20]
 80018aa:	687b      	ldr	r3, [r7, #4]
 80018ac:	3b01      	subs	r3, #1
 80018ae:	607b      	str	r3, [r7, #4]
 80018b0:	687b      	ldr	r3, [r7, #4]
 80018b2:	2b00      	cmp	r3, #0
 80018b4:	d1e6      	bne.n	8001884 <I2CSendBytes+0x54>
 80018b6:	68fb      	ldr	r3, [r7, #12]
 80018b8:	681b      	ldr	r3, [r3, #0]
 80018ba:	4618      	mov	r0, r3
 80018bc:	f7ff fdee 	bl	800149c <I2CStop>
 80018c0:	68f8      	ldr	r0, [r7, #12]
 80018c2:	f7ff ff53 	bl	800176c <I2CWaitForStopToBeCleared>
 80018c6:	4603      	mov	r3, r0
 80018c8:	2b00      	cmp	r3, #0
 80018ca:	d001      	beq.n	80018d0 <I2CSendBytes+0xa0>
 80018cc:	2300      	movs	r3, #0
 80018ce:	e000      	b.n	80018d2 <I2CSendBytes+0xa2>
 80018d0:	2301      	movs	r3, #1
 80018d2:	4618      	mov	r0, r3
 80018d4:	3718      	adds	r7, #24
 80018d6:	46bd      	mov	sp, r7
 80018d8:	bd80      	pop	{r7, pc}
 80018da:	bf00      	nop

080018dc <I2CReadBytes>:
 80018dc:	b580      	push	{r7, lr}
 80018de:	b086      	sub	sp, #24
 80018e0:	af00      	add	r7, sp, #0
 80018e2:	60f8      	str	r0, [r7, #12]
 80018e4:	60b9      	str	r1, [r7, #8]
 80018e6:	607a      	str	r2, [r7, #4]
 80018e8:	70fb      	strb	r3, [r7, #3]
 80018ea:	68bb      	ldr	r3, [r7, #8]
 80018ec:	617b      	str	r3, [r7, #20]
 80018ee:	68f8      	ldr	r0, [r7, #12]
 80018f0:	f7ff ff64 	bl	80017bc <I2CWaitBusyLine>
 80018f4:	4603      	mov	r3, r0
 80018f6:	2b00      	cmp	r3, #0
 80018f8:	d001      	beq.n	80018fe <I2CReadBytes+0x22>
 80018fa:	2300      	movs	r3, #0
 80018fc:	e114      	b.n	8001b28 <I2CReadBytes+0x24c>
 80018fe:	687b      	ldr	r3, [r7, #4]
 8001900:	2b01      	cmp	r3, #1
 8001902:	d13e      	bne.n	8001982 <I2CReadBytes+0xa6>
 8001904:	68f8      	ldr	r0, [r7, #12]
 8001906:	f7ff fe35 	bl	8001574 <I2CStart>
 800190a:	4603      	mov	r3, r0
 800190c:	2b00      	cmp	r3, #0
 800190e:	d001      	beq.n	8001914 <I2CReadBytes+0x38>
 8001910:	2300      	movs	r3, #0
 8001912:	e109      	b.n	8001b28 <I2CReadBytes+0x24c>
 8001914:	78fb      	ldrb	r3, [r7, #3]
 8001916:	68f8      	ldr	r0, [r7, #12]
 8001918:	4619      	mov	r1, r3
 800191a:	2201      	movs	r2, #1
 800191c:	f7ff fe6e 	bl	80015fc <I2CSendAddr>
 8001920:	4603      	mov	r3, r0
 8001922:	2b00      	cmp	r3, #0
 8001924:	d001      	beq.n	800192a <I2CReadBytes+0x4e>
 8001926:	2300      	movs	r3, #0
 8001928:	e0fe      	b.n	8001b28 <I2CReadBytes+0x24c>
 800192a:	68fb      	ldr	r3, [r7, #12]
 800192c:	681b      	ldr	r3, [r3, #0]
 800192e:	4618      	mov	r0, r3
 8001930:	f7ff fdd4 	bl	80014dc <I2CUnSetAck>
 8001934:	68fb      	ldr	r3, [r7, #12]
 8001936:	681b      	ldr	r3, [r3, #0]
 8001938:	4618      	mov	r0, r3
 800193a:	f7ff fddf 	bl	80014fc <I2CClearAddrFlag>
 800193e:	68fb      	ldr	r3, [r7, #12]
 8001940:	681b      	ldr	r3, [r3, #0]
 8001942:	4618      	mov	r0, r3
 8001944:	f7ff fdaa 	bl	800149c <I2CStop>
 8001948:	68f8      	ldr	r0, [r7, #12]
 800194a:	f7ff fe9b 	bl	8001684 <I2CWaitForByte>
 800194e:	4603      	mov	r3, r0
 8001950:	2b00      	cmp	r3, #0
 8001952:	d001      	beq.n	8001958 <I2CReadBytes+0x7c>
 8001954:	2300      	movs	r3, #0
 8001956:	e0e7      	b.n	8001b28 <I2CReadBytes+0x24c>
 8001958:	68fb      	ldr	r3, [r7, #12]
 800195a:	681b      	ldr	r3, [r3, #0]
 800195c:	4618      	mov	r0, r3
 800195e:	6979      	ldr	r1, [r7, #20]
 8001960:	f7ff fdf8 	bl	8001554 <I2CReadDR>
 8001964:	68f8      	ldr	r0, [r7, #12]
 8001966:	f7ff ff01 	bl	800176c <I2CWaitForStopToBeCleared>
 800196a:	4603      	mov	r3, r0
 800196c:	2b00      	cmp	r3, #0
 800196e:	d001      	beq.n	8001974 <I2CReadBytes+0x98>
 8001970:	2300      	movs	r3, #0
 8001972:	e0d9      	b.n	8001b28 <I2CReadBytes+0x24c>
 8001974:	68fb      	ldr	r3, [r7, #12]
 8001976:	681b      	ldr	r3, [r3, #0]
 8001978:	4618      	mov	r0, r3
 800197a:	f7ff fd9f 	bl	80014bc <I2CSetAck>
 800197e:	2301      	movs	r3, #1
 8001980:	e0d2      	b.n	8001b28 <I2CReadBytes+0x24c>
 8001982:	687b      	ldr	r3, [r7, #4]
 8001984:	2b02      	cmp	r3, #2
 8001986:	d157      	bne.n	8001a38 <I2CReadBytes+0x15c>
 8001988:	68fb      	ldr	r3, [r7, #12]
 800198a:	681b      	ldr	r3, [r3, #0]
 800198c:	4618      	mov	r0, r3
 800198e:	f7ff fd95 	bl	80014bc <I2CSetAck>
 8001992:	68fb      	ldr	r3, [r7, #12]
 8001994:	681b      	ldr	r3, [r3, #0]
 8001996:	4618      	mov	r0, r3
 8001998:	f7ff fdbc 	bl	8001514 <I2CSetPOS>
 800199c:	68f8      	ldr	r0, [r7, #12]
 800199e:	f7ff fde9 	bl	8001574 <I2CStart>
 80019a2:	4603      	mov	r3, r0
 80019a4:	2b01      	cmp	r3, #1
 80019a6:	d001      	beq.n	80019ac <I2CReadBytes+0xd0>
 80019a8:	2300      	movs	r3, #0
 80019aa:	e0bd      	b.n	8001b28 <I2CReadBytes+0x24c>
 80019ac:	78fb      	ldrb	r3, [r7, #3]
 80019ae:	68f8      	ldr	r0, [r7, #12]
 80019b0:	4619      	mov	r1, r3
 80019b2:	2201      	movs	r2, #1
 80019b4:	f7ff fe22 	bl	80015fc <I2CSendAddr>
 80019b8:	4603      	mov	r3, r0
 80019ba:	2b00      	cmp	r3, #0
 80019bc:	d001      	beq.n	80019c2 <I2CReadBytes+0xe6>
 80019be:	2300      	movs	r3, #0
 80019c0:	e0b2      	b.n	8001b28 <I2CReadBytes+0x24c>
 80019c2:	68fb      	ldr	r3, [r7, #12]
 80019c4:	681b      	ldr	r3, [r3, #0]
 80019c6:	4618      	mov	r0, r3
 80019c8:	f7ff fd98 	bl	80014fc <I2CClearAddrFlag>
 80019cc:	68fb      	ldr	r3, [r7, #12]
 80019ce:	681b      	ldr	r3, [r3, #0]
 80019d0:	4618      	mov	r0, r3
 80019d2:	f7ff fd83 	bl	80014dc <I2CUnSetAck>
 80019d6:	68f8      	ldr	r0, [r7, #12]
 80019d8:	f7ff fe8e 	bl	80016f8 <I2CWaitForBTF>
 80019dc:	4603      	mov	r3, r0
 80019de:	2b00      	cmp	r3, #0
 80019e0:	d001      	beq.n	80019e6 <I2CReadBytes+0x10a>
 80019e2:	2300      	movs	r3, #0
 80019e4:	e0a0      	b.n	8001b28 <I2CReadBytes+0x24c>
 80019e6:	b672      	cpsid	i
 80019e8:	68fb      	ldr	r3, [r7, #12]
 80019ea:	681b      	ldr	r3, [r3, #0]
 80019ec:	4618      	mov	r0, r3
 80019ee:	f7ff fd55 	bl	800149c <I2CStop>
 80019f2:	68fb      	ldr	r3, [r7, #12]
 80019f4:	681b      	ldr	r3, [r3, #0]
 80019f6:	4618      	mov	r0, r3
 80019f8:	6979      	ldr	r1, [r7, #20]
 80019fa:	f7ff fdab 	bl	8001554 <I2CReadDR>
 80019fe:	b662      	cpsie	i
 8001a00:	697b      	ldr	r3, [r7, #20]
 8001a02:	3301      	adds	r3, #1
 8001a04:	617b      	str	r3, [r7, #20]
 8001a06:	68fb      	ldr	r3, [r7, #12]
 8001a08:	681b      	ldr	r3, [r3, #0]
 8001a0a:	4618      	mov	r0, r3
 8001a0c:	6979      	ldr	r1, [r7, #20]
 8001a0e:	f7ff fda1 	bl	8001554 <I2CReadDR>
 8001a12:	68f8      	ldr	r0, [r7, #12]
 8001a14:	f7ff feaa 	bl	800176c <I2CWaitForStopToBeCleared>
 8001a18:	4603      	mov	r3, r0
 8001a1a:	2b00      	cmp	r3, #0
 8001a1c:	d001      	beq.n	8001a22 <I2CReadBytes+0x146>
 8001a1e:	2300      	movs	r3, #0
 8001a20:	e082      	b.n	8001b28 <I2CReadBytes+0x24c>
 8001a22:	68fb      	ldr	r3, [r7, #12]
 8001a24:	681b      	ldr	r3, [r3, #0]
 8001a26:	4618      	mov	r0, r3
 8001a28:	f7ff fd84 	bl	8001534 <I2CUnSetPOS>
 8001a2c:	68fb      	ldr	r3, [r7, #12]
 8001a2e:	681b      	ldr	r3, [r3, #0]
 8001a30:	4618      	mov	r0, r3
 8001a32:	f7ff fd43 	bl	80014bc <I2CSetAck>
 8001a36:	e076      	b.n	8001b26 <I2CReadBytes+0x24a>
 8001a38:	68f8      	ldr	r0, [r7, #12]
 8001a3a:	f7ff fd9b 	bl	8001574 <I2CStart>
 8001a3e:	4603      	mov	r3, r0
 8001a40:	2b00      	cmp	r3, #0
 8001a42:	d001      	beq.n	8001a48 <I2CReadBytes+0x16c>
 8001a44:	2300      	movs	r3, #0
 8001a46:	e06f      	b.n	8001b28 <I2CReadBytes+0x24c>
 8001a48:	78fb      	ldrb	r3, [r7, #3]
 8001a4a:	68f8      	ldr	r0, [r7, #12]
 8001a4c:	4619      	mov	r1, r3
 8001a4e:	2201      	movs	r2, #1
 8001a50:	f7ff fdd4 	bl	80015fc <I2CSendAddr>
 8001a54:	4603      	mov	r3, r0
 8001a56:	2b00      	cmp	r3, #0
 8001a58:	d001      	beq.n	8001a5e <I2CReadBytes+0x182>
 8001a5a:	2300      	movs	r3, #0
 8001a5c:	e064      	b.n	8001b28 <I2CReadBytes+0x24c>
 8001a5e:	68fb      	ldr	r3, [r7, #12]
 8001a60:	681b      	ldr	r3, [r3, #0]
 8001a62:	4618      	mov	r0, r3
 8001a64:	f7ff fd4a 	bl	80014fc <I2CClearAddrFlag>
 8001a68:	e04d      	b.n	8001b06 <I2CReadBytes+0x22a>
 8001a6a:	687b      	ldr	r3, [r7, #4]
 8001a6c:	2b03      	cmp	r3, #3
 8001a6e:	d013      	beq.n	8001a98 <I2CReadBytes+0x1bc>
 8001a70:	68f8      	ldr	r0, [r7, #12]
 8001a72:	f7ff fe41 	bl	80016f8 <I2CWaitForBTF>
 8001a76:	4603      	mov	r3, r0
 8001a78:	2b00      	cmp	r3, #0
 8001a7a:	d001      	beq.n	8001a80 <I2CReadBytes+0x1a4>
 8001a7c:	2300      	movs	r3, #0
 8001a7e:	e053      	b.n	8001b28 <I2CReadBytes+0x24c>
 8001a80:	68fb      	ldr	r3, [r7, #12]
 8001a82:	681b      	ldr	r3, [r3, #0]
 8001a84:	4618      	mov	r0, r3
 8001a86:	6979      	ldr	r1, [r7, #20]
 8001a88:	f7ff fd64 	bl	8001554 <I2CReadDR>
 8001a8c:	697b      	ldr	r3, [r7, #20]
 8001a8e:	3301      	adds	r3, #1
 8001a90:	617b      	str	r3, [r7, #20]
 8001a92:	687b      	ldr	r3, [r7, #4]
 8001a94:	3b01      	subs	r3, #1
 8001a96:	607b      	str	r3, [r7, #4]
 8001a98:	687b      	ldr	r3, [r7, #4]
 8001a9a:	2b03      	cmp	r3, #3
 8001a9c:	d133      	bne.n	8001b06 <I2CReadBytes+0x22a>
 8001a9e:	68f8      	ldr	r0, [r7, #12]
 8001aa0:	f7ff fe2a 	bl	80016f8 <I2CWaitForBTF>
 8001aa4:	4603      	mov	r3, r0
 8001aa6:	2b00      	cmp	r3, #0
 8001aa8:	d001      	beq.n	8001aae <I2CReadBytes+0x1d2>
 8001aaa:	2300      	movs	r3, #0
 8001aac:	e03c      	b.n	8001b28 <I2CReadBytes+0x24c>
 8001aae:	68fb      	ldr	r3, [r7, #12]
 8001ab0:	681b      	ldr	r3, [r3, #0]
 8001ab2:	4618      	mov	r0, r3
 8001ab4:	f7ff fd12 	bl	80014dc <I2CUnSetAck>
 8001ab8:	68fb      	ldr	r3, [r7, #12]
 8001aba:	681b      	ldr	r3, [r3, #0]
 8001abc:	4618      	mov	r0, r3
 8001abe:	6979      	ldr	r1, [r7, #20]
 8001ac0:	f7ff fd48 	bl	8001554 <I2CReadDR>
 8001ac4:	697b      	ldr	r3, [r7, #20]
 8001ac6:	3301      	adds	r3, #1
 8001ac8:	617b      	str	r3, [r7, #20]
 8001aca:	68fb      	ldr	r3, [r7, #12]
 8001acc:	681b      	ldr	r3, [r3, #0]
 8001ace:	4618      	mov	r0, r3
 8001ad0:	f7ff fce4 	bl	800149c <I2CStop>
 8001ad4:	68fb      	ldr	r3, [r7, #12]
 8001ad6:	681b      	ldr	r3, [r3, #0]
 8001ad8:	4618      	mov	r0, r3
 8001ada:	6979      	ldr	r1, [r7, #20]
 8001adc:	f7ff fd3a 	bl	8001554 <I2CReadDR>
 8001ae0:	697b      	ldr	r3, [r7, #20]
 8001ae2:	3301      	adds	r3, #1
 8001ae4:	617b      	str	r3, [r7, #20]
 8001ae6:	68f8      	ldr	r0, [r7, #12]
 8001ae8:	f7ff fdcc 	bl	8001684 <I2CWaitForByte>
 8001aec:	4603      	mov	r3, r0
 8001aee:	2b00      	cmp	r3, #0
 8001af0:	d001      	beq.n	8001af6 <I2CReadBytes+0x21a>
 8001af2:	2300      	movs	r3, #0
 8001af4:	e018      	b.n	8001b28 <I2CReadBytes+0x24c>
 8001af6:	68fb      	ldr	r3, [r7, #12]
 8001af8:	681b      	ldr	r3, [r3, #0]
 8001afa:	4618      	mov	r0, r3
 8001afc:	6979      	ldr	r1, [r7, #20]
 8001afe:	f7ff fd29 	bl	8001554 <I2CReadDR>
 8001b02:	2300      	movs	r3, #0
 8001b04:	607b      	str	r3, [r7, #4]
 8001b06:	687b      	ldr	r3, [r7, #4]
 8001b08:	2b00      	cmp	r3, #0
 8001b0a:	d1ae      	bne.n	8001a6a <I2CReadBytes+0x18e>
 8001b0c:	68f8      	ldr	r0, [r7, #12]
 8001b0e:	f7ff fe2d 	bl	800176c <I2CWaitForStopToBeCleared>
 8001b12:	4603      	mov	r3, r0
 8001b14:	2b00      	cmp	r3, #0
 8001b16:	d001      	beq.n	8001b1c <I2CReadBytes+0x240>
 8001b18:	2300      	movs	r3, #0
 8001b1a:	e005      	b.n	8001b28 <I2CReadBytes+0x24c>
 8001b1c:	68fb      	ldr	r3, [r7, #12]
 8001b1e:	681b      	ldr	r3, [r3, #0]
 8001b20:	4618      	mov	r0, r3
 8001b22:	f7ff fccb 	bl	80014bc <I2CSetAck>
 8001b26:	2301      	movs	r3, #1
 8001b28:	4618      	mov	r0, r3
 8001b2a:	3718      	adds	r7, #24
 8001b2c:	46bd      	mov	sp, r7
 8001b2e:	bd80      	pop	{r7, pc}

08001b30 <rccGetApb1Prescaler>:
 8001b30:	b480      	push	{r7}
 8001b32:	b083      	sub	sp, #12
 8001b34:	af00      	add	r7, sp, #0
 8001b36:	2301      	movs	r3, #1
 8001b38:	71bb      	strb	r3, [r7, #6]
 8001b3a:	4b11      	ldr	r3, [pc, #68]	; (8001b80 <rccGetApb1Prescaler+0x50>)
 8001b3c:	689b      	ldr	r3, [r3, #8]
 8001b3e:	f403 53e0 	and.w	r3, r3, #7168	; 0x1c00
 8001b42:	0a9b      	lsrs	r3, r3, #10
 8001b44:	717b      	strb	r3, [r7, #5]
 8001b46:	797b      	ldrb	r3, [r7, #5]
 8001b48:	2b03      	cmp	r3, #3
 8001b4a:	d801      	bhi.n	8001b50 <rccGetApb1Prescaler+0x20>
 8001b4c:	79bb      	ldrb	r3, [r7, #6]
 8001b4e:	e010      	b.n	8001b72 <rccGetApb1Prescaler+0x42>
 8001b50:	2302      	movs	r3, #2
 8001b52:	71bb      	strb	r3, [r7, #6]
 8001b54:	2300      	movs	r3, #0
 8001b56:	71fb      	strb	r3, [r7, #7]
 8001b58:	e005      	b.n	8001b66 <rccGetApb1Prescaler+0x36>
 8001b5a:	79bb      	ldrb	r3, [r7, #6]
 8001b5c:	005b      	lsls	r3, r3, #1
 8001b5e:	71bb      	strb	r3, [r7, #6]
 8001b60:	79fb      	ldrb	r3, [r7, #7]
 8001b62:	3301      	adds	r3, #1
 8001b64:	71fb      	strb	r3, [r7, #7]
 8001b66:	79fa      	ldrb	r2, [r7, #7]
 8001b68:	797b      	ldrb	r3, [r7, #5]
 8001b6a:	3b04      	subs	r3, #4
 8001b6c:	429a      	cmp	r2, r3
 8001b6e:	dbf4      	blt.n	8001b5a <rccGetApb1Prescaler+0x2a>
 8001b70:	79bb      	ldrb	r3, [r7, #6]
 8001b72:	4618      	mov	r0, r3
 8001b74:	370c      	adds	r7, #12
 8001b76:	46bd      	mov	sp, r7
 8001b78:	f85d 7b04 	ldr.w	r7, [sp], #4
 8001b7c:	4770      	bx	lr
 8001b7e:	bf00      	nop
 8001b80:	40023800 	.word	0x40023800

08001b84 <timPwmChangeDutyCycle>:
 8001b84:	b480      	push	{r7}
 8001b86:	b085      	sub	sp, #20
 8001b88:	af00      	add	r7, sp, #0
 8001b8a:	60f8      	str	r0, [r7, #12]
 8001b8c:	460b      	mov	r3, r1
 8001b8e:	ed87 0a01 	vstr	s0, [r7, #4]
 8001b92:	72fb      	strb	r3, [r7, #11]
 8001b94:	7afb      	ldrb	r3, [r7, #11]
 8001b96:	2b01      	cmp	r3, #1
 8001b98:	d110      	bne.n	8001bbc <timPwmChangeDutyCycle+0x38>
 8001b9a:	68fb      	ldr	r3, [r7, #12]
 8001b9c:	6adb      	ldr	r3, [r3, #44]	; 0x2c
 8001b9e:	ee07 3a90 	vmov	s15, r3
 8001ba2:	eeb8 7a67 	vcvt.f32.u32	s14, s15
 8001ba6:	edd7 7a01 	vldr	s15, [r7, #4]
 8001baa:	ee67 7a27 	vmul.f32	s15, s14, s15
 8001bae:	eefc 7ae7 	vcvt.u32.f32	s15, s15
 8001bb2:	ee17 2a90 	vmov	r2, s15
 8001bb6:	68fb      	ldr	r3, [r7, #12]
 8001bb8:	635a      	str	r2, [r3, #52]	; 0x34
 8001bba:	e03f      	b.n	8001c3c <timPwmChangeDutyCycle+0xb8>
 8001bbc:	7afb      	ldrb	r3, [r7, #11]
 8001bbe:	2b02      	cmp	r3, #2
 8001bc0:	d110      	bne.n	8001be4 <timPwmChangeDutyCycle+0x60>
 8001bc2:	68fb      	ldr	r3, [r7, #12]
 8001bc4:	6adb      	ldr	r3, [r3, #44]	; 0x2c
 8001bc6:	ee07 3a90 	vmov	s15, r3
 8001bca:	eeb8 7a67 	vcvt.f32.u32	s14, s15
 8001bce:	edd7 7a01 	vldr	s15, [r7, #4]
 8001bd2:	ee67 7a27 	vmul.f32	s15, s14, s15
 8001bd6:	eefc 7ae7 	vcvt.u32.f32	s15, s15
 8001bda:	ee17 2a90 	vmov	r2, s15
 8001bde:	68fb      	ldr	r3, [r7, #12]
 8001be0:	639a      	str	r2, [r3, #56]	; 0x38
 8001be2:	e02b      	b.n	8001c3c <timPwmChangeDutyCycle+0xb8>
 8001be4:	7afb      	ldrb	r3, [r7, #11]
 8001be6:	2b03      	cmp	r3, #3
 8001be8:	d110      	bne.n	8001c0c <timPwmChangeDutyCycle+0x88>
 8001bea:	68fb      	ldr	r3, [r7, #12]
 8001bec:	6adb      	ldr	r3, [r3, #44]	; 0x2c
 8001bee:	ee07 3a90 	vmov	s15, r3
 8001bf2:	eeb8 7a67 	vcvt.f32.u32	s14, s15
 8001bf6:	edd7 7a01 	vldr	s15, [r7, #4]
 8001bfa:	ee67 7a27 	vmul.f32	s15, s14, s15
 8001bfe:	eefc 7ae7 	vcvt.u32.f32	s15, s15
 8001c02:	ee17 2a90 	vmov	r2, s15
 8001c06:	68fb      	ldr	r3, [r7, #12]
 8001c08:	63da      	str	r2, [r3, #60]	; 0x3c
 8001c0a:	e017      	b.n	8001c3c <timPwmChangeDutyCycle+0xb8>
 8001c0c:	7afb      	ldrb	r3, [r7, #11]
 8001c0e:	2b04      	cmp	r3, #4
 8001c10:	d110      	bne.n	8001c34 <timPwmChangeDutyCycle+0xb0>
 8001c12:	68fb      	ldr	r3, [r7, #12]
 8001c14:	6adb      	ldr	r3, [r3, #44]	; 0x2c
 8001c16:	ee07 3a90 	vmov	s15, r3
 8001c1a:	eeb8 7a67 	vcvt.f32.u32	s14, s15
 8001c1e:	edd7 7a01 	vldr	s15, [r7, #4]
 8001c22:	ee67 7a27 	vmul.f32	s15, s14, s15
 8001c26:	eefc 7ae7 	vcvt.u32.f32	s15, s15
 8001c2a:	ee17 2a90 	vmov	r2, s15
 8001c2e:	68fb      	ldr	r3, [r7, #12]
 8001c30:	641a      	str	r2, [r3, #64]	; 0x40
 8001c32:	e003      	b.n	8001c3c <timPwmChangeDutyCycle+0xb8>
 8001c34:	68fb      	ldr	r3, [r7, #12]
 8001c36:	2201      	movs	r2, #1
 8001c38:	615a      	str	r2, [r3, #20]
 8001c3a:	bf00      	nop
 8001c3c:	3714      	adds	r7, #20
 8001c3e:	46bd      	mov	sp, r7
 8001c40:	f85d 7b04 	ldr.w	r7, [sp], #4
 8001c44:	4770      	bx	lr
 8001c46:	bf00      	nop

08001c48 <timEnable>:
 8001c48:	b580      	push	{r7, lr}
 8001c4a:	b082      	sub	sp, #8
 8001c4c:	af00      	add	r7, sp, #0
 8001c4e:	6078      	str	r0, [r7, #4]
 8001c50:	6878      	ldr	r0, [r7, #4]
 8001c52:	f000 f811 	bl	8001c78 <timClearStatusRegister>
 8001c56:	687b      	ldr	r3, [r7, #4]
 8001c58:	681b      	ldr	r3, [r3, #0]
 8001c5a:	f003 0301 	and.w	r3, r3, #1
 8001c5e:	2b00      	cmp	r3, #0
 8001c60:	d105      	bne.n	8001c6e <timEnable+0x26>
 8001c62:	687b      	ldr	r3, [r7, #4]
 8001c64:	681b      	ldr	r3, [r3, #0]
 8001c66:	f043 0201 	orr.w	r2, r3, #1
 8001c6a:	687b      	ldr	r3, [r7, #4]
 8001c6c:	601a      	str	r2, [r3, #0]
 8001c6e:	bf00      	nop
 8001c70:	3708      	adds	r7, #8
 8001c72:	46bd      	mov	sp, r7
 8001c74:	bd80      	pop	{r7, pc}
 8001c76:	bf00      	nop

08001c78 <timClearStatusRegister>:
 8001c78:	b480      	push	{r7}
 8001c7a:	b083      	sub	sp, #12
 8001c7c:	af00      	add	r7, sp, #0
 8001c7e:	6078      	str	r0, [r7, #4]
 8001c80:	687b      	ldr	r3, [r7, #4]
 8001c82:	2200      	movs	r2, #0
 8001c84:	611a      	str	r2, [r3, #16]
 8001c86:	bf00      	nop
 8001c88:	370c      	adds	r7, #12
 8001c8a:	46bd      	mov	sp, r7
 8001c8c:	f85d 7b04 	ldr.w	r7, [sp], #4
 8001c90:	4770      	bx	lr
 8001c92:	bf00      	nop

08001c94 <timClearStatusRegisterFlag>:
 8001c94:	b480      	push	{r7}
 8001c96:	b083      	sub	sp, #12
 8001c98:	af00      	add	r7, sp, #0
 8001c9a:	6078      	str	r0, [r7, #4]
 8001c9c:	460b      	mov	r3, r1
 8001c9e:	807b      	strh	r3, [r7, #2]
 8001ca0:	687b      	ldr	r3, [r7, #4]
 8001ca2:	691a      	ldr	r2, [r3, #16]
 8001ca4:	887b      	ldrh	r3, [r7, #2]
 8001ca6:	43db      	mvns	r3, r3
 8001ca8:	401a      	ands	r2, r3
 8001caa:	687b      	ldr	r3, [r7, #4]
 8001cac:	611a      	str	r2, [r3, #16]
 8001cae:	bf00      	nop
 8001cb0:	370c      	adds	r7, #12
 8001cb2:	46bd      	mov	sp, r7
 8001cb4:	f85d 7b04 	ldr.w	r7, [sp], #4
 8001cb8:	4770      	bx	lr
 8001cba:	bf00      	nop

08001cbc <usartPutCharNoEcho>:
 8001cbc:	b480      	push	{r7}
 8001cbe:	b085      	sub	sp, #20
 8001cc0:	af00      	add	r7, sp, #0
 8001cc2:	6078      	str	r0, [r7, #4]
 8001cc4:	460b      	mov	r3, r1
 8001cc6:	70fb      	strb	r3, [r7, #3]
 8001cc8:	4b13      	ldr	r3, [pc, #76]	; (8001d18 <usartPutCharNoEcho+0x5c>)
 8001cca:	60fb      	str	r3, [r7, #12]
 8001ccc:	78fa      	ldrb	r2, [r7, #3]
 8001cce:	687b      	ldr	r3, [r7, #4]
 8001cd0:	605a      	str	r2, [r3, #4]
 8001cd2:	687b      	ldr	r3, [r7, #4]
 8001cd4:	68db      	ldr	r3, [r3, #12]
 8001cd6:	f023 0204 	bic.w	r2, r3, #4
 8001cda:	687b      	ldr	r3, [r7, #4]
 8001cdc:	60da      	str	r2, [r3, #12]
 8001cde:	e007      	b.n	8001cf0 <usartPutCharNoEcho+0x34>
 8001ce0:	68fb      	ldr	r3, [r7, #12]
 8001ce2:	3b01      	subs	r3, #1
 8001ce4:	60fb      	str	r3, [r7, #12]
 8001ce6:	68fb      	ldr	r3, [r7, #12]
 8001ce8:	2b00      	cmp	r3, #0
 8001cea:	d101      	bne.n	8001cf0 <usartPutCharNoEcho+0x34>
 8001cec:	2300      	movs	r3, #0
 8001cee:	e00c      	b.n	8001d0a <usartPutCharNoEcho+0x4e>
 8001cf0:	687b      	ldr	r3, [r7, #4]
 8001cf2:	681b      	ldr	r3, [r3, #0]
 8001cf4:	f003 0340 	and.w	r3, r3, #64	; 0x40
 8001cf8:	2b00      	cmp	r3, #0
 8001cfa:	d0f1      	beq.n	8001ce0 <usartPutCharNoEcho+0x24>
 8001cfc:	687b      	ldr	r3, [r7, #4]
 8001cfe:	68db      	ldr	r3, [r3, #12]
 8001d00:	f043 0204 	orr.w	r2, r3, #4
 8001d04:	687b      	ldr	r3, [r7, #4]
 8001d06:	60da      	str	r2, [r3, #12]
 8001d08:	2301      	movs	r3, #1
 8001d0a:	4618      	mov	r0, r3
 8001d0c:	3714      	adds	r7, #20
 8001d0e:	46bd      	mov	sp, r7
 8001d10:	f85d 7b04 	ldr.w	r7, [sp], #4
 8001d14:	4770      	bx	lr
 8001d16:	bf00      	nop
 8001d18:	77359400 	.word	0x77359400

08001d1c <showError>:
 8001d1c:	b580      	push	{r7, lr}
 8001d1e:	af00      	add	r7, sp, #0
 8001d20:	4803      	ldr	r0, [pc, #12]	; (8001d30 <showError+0x14>)
 8001d22:	2102      	movs	r1, #2
 8001d24:	2201      	movs	r2, #1
 8001d26:	f7ff fa73 	bl	8001210 <gpioPinSetLevel>
 8001d2a:	bf00      	nop
 8001d2c:	bd80      	pop	{r7, pc}
 8001d2e:	bf00      	nop
 8001d30:	40020c00 	.word	0x40020c00

08001d34 <showNoError>:
 8001d34:	b580      	push	{r7, lr}
 8001d36:	af00      	add	r7, sp, #0
 8001d38:	4803      	ldr	r0, [pc, #12]	; (8001d48 <showNoError+0x14>)
 8001d3a:	2102      	movs	r1, #2
 8001d3c:	2200      	movs	r2, #0
 8001d3e:	f7ff fa67 	bl	8001210 <gpioPinSetLevel>
 8001d42:	bf00      	nop
 8001d44:	bd80      	pop	{r7, pc}
 8001d46:	bf00      	nop
 8001d48:	40020c00 	.word	0x40020c00

08001d4c <readRangesGlobally>:
 8001d4c:	b580      	push	{r7, lr}
 8001d4e:	b082      	sub	sp, #8
 8001d50:	af00      	add	r7, sp, #0
 8001d52:	4b11      	ldr	r3, [pc, #68]	; (8001d98 <readRangesGlobally+0x4c>)
 8001d54:	689b      	ldr	r3, [r3, #8]
 8001d56:	4618      	mov	r0, r3
 8001d58:	f44f 717a 	mov.w	r1, #1000	; 0x3e8
 8001d5c:	f000 ff7e 	bl	8002c5c <checkTimeout>
 8001d60:	4603      	mov	r3, r0
 8001d62:	2b00      	cmp	r3, #0
 8001d64:	d101      	bne.n	8001d6a <readRangesGlobally+0x1e>
 8001d66:	2301      	movs	r3, #1
 8001d68:	e012      	b.n	8001d90 <readRangesGlobally+0x44>
 8001d6a:	2300      	movs	r3, #0
 8001d6c:	71fb      	strb	r3, [r7, #7]
 8001d6e:	e00b      	b.n	8001d88 <readRangesGlobally+0x3c>
 8001d70:	79fb      	ldrb	r3, [r7, #7]
 8001d72:	4618      	mov	r0, r3
 8001d74:	f000 f812 	bl	8001d9c <readRange>
 8001d78:	4603      	mov	r3, r0
 8001d7a:	2b01      	cmp	r3, #1
 8001d7c:	d001      	beq.n	8001d82 <readRangesGlobally+0x36>
 8001d7e:	2300      	movs	r3, #0
 8001d80:	e006      	b.n	8001d90 <readRangesGlobally+0x44>
 8001d82:	79fb      	ldrb	r3, [r7, #7]
 8001d84:	3301      	adds	r3, #1
 8001d86:	71fb      	strb	r3, [r7, #7]
 8001d88:	79fb      	ldrb	r3, [r7, #7]
 8001d8a:	2b0f      	cmp	r3, #15
 8001d8c:	d9f0      	bls.n	8001d70 <readRangesGlobally+0x24>
 8001d8e:	2301      	movs	r3, #1
 8001d90:	4618      	mov	r0, r3
 8001d92:	3708      	adds	r7, #8
 8001d94:	46bd      	mov	sp, r7
 8001d96:	bd80      	pop	{r7, pc}
 8001d98:	20014d90 	.word	0x20014d90

08001d9c <readRange>:
 8001d9c:	b580      	push	{r7, lr}
 8001d9e:	b084      	sub	sp, #16
 8001da0:	af00      	add	r7, sp, #0
 8001da2:	4603      	mov	r3, r0
 8001da4:	71fb      	strb	r3, [r7, #7]
 8001da6:	79fb      	ldrb	r3, [r7, #7]
 8001da8:	4a3a      	ldr	r2, [pc, #232]	; (8001e94 <readRange+0xf8>)
 8001daa:	4413      	add	r3, r2
 8001dac:	f893 3026 	ldrb.w	r3, [r3, #38]	; 0x26
 8001db0:	2b00      	cmp	r3, #0
 8001db2:	d169      	bne.n	8001e88 <readRange+0xec>
 8001db4:	79fb      	ldrb	r3, [r7, #7]
 8001db6:	332a      	adds	r3, #42	; 0x2a
 8001db8:	b2da      	uxtb	r2, r3
 8001dba:	f107 030f 	add.w	r3, r7, #15
 8001dbe:	4610      	mov	r0, r2
 8001dc0:	4619      	mov	r1, r3
 8001dc2:	2204      	movs	r2, #4
 8001dc4:	f002 f812 	bl	8003dec <rangeFinderCheckInterruptStatusOfSensor>
 8001dc8:	4603      	mov	r3, r0
 8001dca:	2b01      	cmp	r3, #1
 8001dcc:	d011      	beq.n	8001df2 <readRange+0x56>
 8001dce:	79fb      	ldrb	r3, [r7, #7]
 8001dd0:	4a30      	ldr	r2, [pc, #192]	; (8001e94 <readRange+0xf8>)
 8001dd2:	4413      	add	r3, r2
 8001dd4:	2204      	movs	r2, #4
 8001dd6:	759a      	strb	r2, [r3, #22]
 8001dd8:	79fb      	ldrb	r3, [r7, #7]
 8001dda:	4a2e      	ldr	r2, [pc, #184]	; (8001e94 <readRange+0xf8>)
 8001ddc:	4413      	add	r3, r2
 8001dde:	2201      	movs	r2, #1
 8001de0:	f883 2026 	strb.w	r2, [r3, #38]	; 0x26
 8001de4:	4b2c      	ldr	r3, [pc, #176]	; (8001e98 <readRange+0xfc>)
 8001de6:	2200      	movs	r2, #0
 8001de8:	711a      	strb	r2, [r3, #4]
 8001dea:	f7ff ff97 	bl	8001d1c <showError>
 8001dee:	2300      	movs	r3, #0
 8001df0:	e04b      	b.n	8001e8a <readRange+0xee>
 8001df2:	79fb      	ldrb	r3, [r7, #7]
 8001df4:	4a27      	ldr	r2, [pc, #156]	; (8001e94 <readRange+0xf8>)
 8001df6:	4413      	add	r3, r2
 8001df8:	2200      	movs	r2, #0
 8001dfa:	759a      	strb	r2, [r3, #22]
 8001dfc:	7bfb      	ldrb	r3, [r7, #15]
 8001dfe:	2b00      	cmp	r3, #0
 8001e00:	d01e      	beq.n	8001e40 <readRange+0xa4>
 8001e02:	79fb      	ldrb	r3, [r7, #7]
 8001e04:	332a      	adds	r3, #42	; 0x2a
 8001e06:	b2da      	uxtb	r2, r3
 8001e08:	79f9      	ldrb	r1, [r7, #7]
 8001e0a:	4b22      	ldr	r3, [pc, #136]	; (8001e94 <readRange+0xf8>)
 8001e0c:	440b      	add	r3, r1
 8001e0e:	4610      	mov	r0, r2
 8001e10:	4619      	mov	r1, r3
 8001e12:	f002 f83b 	bl	8003e8c <rangeFinderReadMeasuredRange>
 8001e16:	4603      	mov	r3, r0
 8001e18:	2b01      	cmp	r3, #1
 8001e1a:	d035      	beq.n	8001e88 <readRange+0xec>
 8001e1c:	79fb      	ldrb	r3, [r7, #7]
 8001e1e:	4a1d      	ldr	r2, [pc, #116]	; (8001e94 <readRange+0xf8>)
 8001e20:	4413      	add	r3, r2
 8001e22:	2204      	movs	r2, #4
 8001e24:	759a      	strb	r2, [r3, #22]
 8001e26:	79fb      	ldrb	r3, [r7, #7]
 8001e28:	4a1a      	ldr	r2, [pc, #104]	; (8001e94 <readRange+0xf8>)
 8001e2a:	4413      	add	r3, r2
 8001e2c:	2201      	movs	r2, #1
 8001e2e:	f883 2026 	strb.w	r2, [r3, #38]	; 0x26
 8001e32:	4b19      	ldr	r3, [pc, #100]	; (8001e98 <readRange+0xfc>)
 8001e34:	2200      	movs	r2, #0
 8001e36:	711a      	strb	r2, [r3, #4]
 8001e38:	f7ff ff70 	bl	8001d1c <showError>
 8001e3c:	2300      	movs	r3, #0
 8001e3e:	e024      	b.n	8001e8a <readRange+0xee>
 8001e40:	2300      	movs	r3, #0
 8001e42:	73bb      	strb	r3, [r7, #14]
 8001e44:	79fb      	ldrb	r3, [r7, #7]
 8001e46:	332a      	adds	r3, #42	; 0x2a
 8001e48:	b2da      	uxtb	r2, r3
 8001e4a:	f107 030e 	add.w	r3, r7, #14
 8001e4e:	4610      	mov	r0, r2
 8001e50:	4619      	mov	r1, r3
 8001e52:	f002 f831 	bl	8003eb8 <rangeFinderReadRangeReadyStatus>
 8001e56:	4603      	mov	r3, r0
 8001e58:	2b01      	cmp	r3, #1
 8001e5a:	d00d      	beq.n	8001e78 <readRange+0xdc>
 8001e5c:	79fb      	ldrb	r3, [r7, #7]
 8001e5e:	4a0d      	ldr	r2, [pc, #52]	; (8001e94 <readRange+0xf8>)
 8001e60:	4413      	add	r3, r2
 8001e62:	2204      	movs	r2, #4
 8001e64:	759a      	strb	r2, [r3, #22]
 8001e66:	79fb      	ldrb	r3, [r7, #7]
 8001e68:	4a0a      	ldr	r2, [pc, #40]	; (8001e94 <readRange+0xf8>)
 8001e6a:	4413      	add	r3, r2
 8001e6c:	2201      	movs	r2, #1
 8001e6e:	f883 2026 	strb.w	r2, [r3, #38]	; 0x26
 8001e72:	4b09      	ldr	r3, [pc, #36]	; (8001e98 <readRange+0xfc>)
 8001e74:	2200      	movs	r2, #0
 8001e76:	711a      	strb	r2, [r3, #4]
 8001e78:	79fb      	ldrb	r3, [r7, #7]
 8001e7a:	4a06      	ldr	r2, [pc, #24]	; (8001e94 <readRange+0xf8>)
 8001e7c:	4413      	add	r3, r2
 8001e7e:	2201      	movs	r2, #1
 8001e80:	f883 2026 	strb.w	r2, [r3, #38]	; 0x26
 8001e84:	f7ff ff4a 	bl	8001d1c <showError>
 8001e88:	2301      	movs	r3, #1
 8001e8a:	4618      	mov	r0, r3
 8001e8c:	3710      	adds	r7, #16
 8001e8e:	46bd      	mov	sp, r7
 8001e90:	bd80      	pop	{r7, pc}
 8001e92:	bf00      	nop
 8001e94:	20014d9c 	.word	0x20014d9c
 8001e98:	20014d90 	.word	0x20014d90

08001e9c <checkRangeFindersReinitFlags>:
 8001e9c:	b580      	push	{r7, lr}
 8001e9e:	b082      	sub	sp, #8
 8001ea0:	af00      	add	r7, sp, #0
 8001ea2:	2300      	movs	r3, #0
 8001ea4:	71bb      	strb	r3, [r7, #6]
 8001ea6:	4b5d      	ldr	r3, [pc, #372]	; (800201c <checkRangeFindersReinitFlags+0x180>)
 8001ea8:	689b      	ldr	r3, [r3, #8]
 8001eaa:	4618      	mov	r0, r3
 8001eac:	f240 61a4 	movw	r1, #1700	; 0x6a4
 8001eb0:	f000 fed4 	bl	8002c5c <checkTimeout>
 8001eb4:	4603      	mov	r3, r0
 8001eb6:	2b00      	cmp	r3, #0
 8001eb8:	d00b      	beq.n	8001ed2 <checkRangeFindersReinitFlags+0x36>
 8001eba:	4b59      	ldr	r3, [pc, #356]	; (8002020 <checkRangeFindersReinitFlags+0x184>)
 8001ebc:	f893 303a 	ldrb.w	r3, [r3, #58]	; 0x3a
 8001ec0:	2b00      	cmp	r3, #0
 8001ec2:	d006      	beq.n	8001ed2 <checkRangeFindersReinitFlags+0x36>
 8001ec4:	f000 fa5a 	bl	800237c <powerTurnOnExpander>
 8001ec8:	4b55      	ldr	r3, [pc, #340]	; (8002020 <checkRangeFindersReinitFlags+0x184>)
 8001eca:	2200      	movs	r2, #0
 8001ecc:	f883 203a 	strb.w	r2, [r3, #58]	; 0x3a
 8001ed0:	e0a0      	b.n	8002014 <checkRangeFindersReinitFlags+0x178>
 8001ed2:	4b52      	ldr	r3, [pc, #328]	; (800201c <checkRangeFindersReinitFlags+0x180>)
 8001ed4:	689b      	ldr	r3, [r3, #8]
 8001ed6:	4618      	mov	r0, r3
 8001ed8:	f44f 717a 	mov.w	r1, #1000	; 0x3e8
 8001edc:	f000 febe 	bl	8002c5c <checkTimeout>
 8001ee0:	4603      	mov	r3, r0
 8001ee2:	2b00      	cmp	r3, #0
 8001ee4:	f000 8095 	beq.w	8002012 <checkRangeFindersReinitFlags+0x176>
 8001ee8:	2300      	movs	r3, #0
 8001eea:	71fb      	strb	r3, [r7, #7]
 8001eec:	e00a      	b.n	8001f04 <checkRangeFindersReinitFlags+0x68>
 8001eee:	79fb      	ldrb	r3, [r7, #7]
 8001ef0:	4a4b      	ldr	r2, [pc, #300]	; (8002020 <checkRangeFindersReinitFlags+0x184>)
 8001ef2:	4413      	add	r3, r2
 8001ef4:	f893 2026 	ldrb.w	r2, [r3, #38]	; 0x26
 8001ef8:	79bb      	ldrb	r3, [r7, #6]
 8001efa:	4413      	add	r3, r2
 8001efc:	71bb      	strb	r3, [r7, #6]
 8001efe:	79fb      	ldrb	r3, [r7, #7]
 8001f00:	3301      	adds	r3, #1
 8001f02:	71fb      	strb	r3, [r7, #7]
 8001f04:	79fb      	ldrb	r3, [r7, #7]
 8001f06:	2b0f      	cmp	r3, #15
 8001f08:	d9f1      	bls.n	8001eee <checkRangeFindersReinitFlags+0x52>
 8001f0a:	4b45      	ldr	r3, [pc, #276]	; (8002020 <checkRangeFindersReinitFlags+0x184>)
 8001f0c:	f893 2036 	ldrb.w	r2, [r3, #54]	; 0x36
 8001f10:	79bb      	ldrb	r3, [r7, #6]
 8001f12:	4413      	add	r3, r2
 8001f14:	71bb      	strb	r3, [r7, #6]
 8001f16:	79bb      	ldrb	r3, [r7, #6]
 8001f18:	2b11      	cmp	r3, #17
 8001f1a:	d118      	bne.n	8001f4e <checkRangeFindersReinitFlags+0xb2>
 8001f1c:	483f      	ldr	r0, [pc, #252]	; (800201c <checkRangeFindersReinitFlags+0x180>)
 8001f1e:	f7ff fa47 	bl	80013b0 <I2CReset>
 8001f22:	2300      	movs	r3, #0
 8001f24:	71fb      	strb	r3, [r7, #7]
 8001f26:	e008      	b.n	8001f3a <checkRangeFindersReinitFlags+0x9e>
 8001f28:	79fb      	ldrb	r3, [r7, #7]
 8001f2a:	4a3d      	ldr	r2, [pc, #244]	; (8002020 <checkRangeFindersReinitFlags+0x184>)
 8001f2c:	4413      	add	r3, r2
 8001f2e:	2200      	movs	r2, #0
 8001f30:	f883 2026 	strb.w	r2, [r3, #38]	; 0x26
 8001f34:	79fb      	ldrb	r3, [r7, #7]
 8001f36:	3301      	adds	r3, #1
 8001f38:	71fb      	strb	r3, [r7, #7]
 8001f3a:	79fb      	ldrb	r3, [r7, #7]
 8001f3c:	2b0f      	cmp	r3, #15
 8001f3e:	d9f3      	bls.n	8001f28 <checkRangeFindersReinitFlags+0x8c>
 8001f40:	4b37      	ldr	r3, [pc, #220]	; (8002020 <checkRangeFindersReinitFlags+0x184>)
 8001f42:	2200      	movs	r2, #0
 8001f44:	f883 2036 	strb.w	r2, [r3, #54]	; 0x36
 8001f48:	f7ff fef4 	bl	8001d34 <showNoError>
 8001f4c:	e061      	b.n	8002012 <checkRangeFindersReinitFlags+0x176>
 8001f4e:	f000 fa21 	bl	8002394 <checkExpander>
 8001f52:	4603      	mov	r3, r0
 8001f54:	461a      	mov	r2, r3
 8001f56:	4b32      	ldr	r3, [pc, #200]	; (8002020 <checkRangeFindersReinitFlags+0x184>)
 8001f58:	f883 2036 	strb.w	r2, [r3, #54]	; 0x36
 8001f5c:	4b30      	ldr	r3, [pc, #192]	; (8002020 <checkRangeFindersReinitFlags+0x184>)
 8001f5e:	f893 3036 	ldrb.w	r3, [r3, #54]	; 0x36
 8001f62:	2b01      	cmp	r3, #1
 8001f64:	d116      	bne.n	8001f94 <checkRangeFindersReinitFlags+0xf8>
 8001f66:	2021      	movs	r0, #33	; 0x21
 8001f68:	f000 fa2c 	bl	80023c4 <initExpanderOutputMode>
 8001f6c:	4603      	mov	r3, r0
 8001f6e:	2b01      	cmp	r3, #1
 8001f70:	d009      	beq.n	8001f86 <checkRangeFindersReinitFlags+0xea>
 8001f72:	4b2b      	ldr	r3, [pc, #172]	; (8002020 <checkRangeFindersReinitFlags+0x184>)
 8001f74:	2201      	movs	r2, #1
 8001f76:	f883 2036 	strb.w	r2, [r3, #54]	; 0x36
 8001f7a:	4b28      	ldr	r3, [pc, #160]	; (800201c <checkRangeFindersReinitFlags+0x180>)
 8001f7c:	2200      	movs	r2, #0
 8001f7e:	711a      	strb	r2, [r3, #4]
 8001f80:	f7ff fecc 	bl	8001d1c <showError>
 8001f84:	e046      	b.n	8002014 <checkRangeFindersReinitFlags+0x178>
 8001f86:	4b26      	ldr	r3, [pc, #152]	; (8002020 <checkRangeFindersReinitFlags+0x184>)
 8001f88:	2200      	movs	r2, #0
 8001f8a:	f883 2036 	strb.w	r2, [r3, #54]	; 0x36
 8001f8e:	f7ff fed1 	bl	8001d34 <showNoError>
 8001f92:	e03f      	b.n	8002014 <checkRangeFindersReinitFlags+0x178>
 8001f94:	2300      	movs	r3, #0
 8001f96:	71fb      	strb	r3, [r7, #7]
 8001f98:	e038      	b.n	800200c <checkRangeFindersReinitFlags+0x170>
 8001f9a:	79fb      	ldrb	r3, [r7, #7]
 8001f9c:	4a20      	ldr	r2, [pc, #128]	; (8002020 <checkRangeFindersReinitFlags+0x184>)
 8001f9e:	4413      	add	r3, r2
 8001fa0:	f893 3026 	ldrb.w	r3, [r3, #38]	; 0x26
 8001fa4:	2b01      	cmp	r3, #1
 8001fa6:	d12e      	bne.n	8002006 <checkRangeFindersReinitFlags+0x16a>
 8001fa8:	79fb      	ldrb	r3, [r7, #7]
 8001faa:	4618      	mov	r0, r3
 8001fac:	f000 f996 	bl	80022dc <initRangeFinder>
 8001fb0:	4603      	mov	r3, r0
 8001fb2:	2b01      	cmp	r3, #1
 8001fb4:	d00a      	beq.n	8001fcc <checkRangeFindersReinitFlags+0x130>
 8001fb6:	79fb      	ldrb	r3, [r7, #7]
 8001fb8:	4a19      	ldr	r2, [pc, #100]	; (8002020 <checkRangeFindersReinitFlags+0x184>)
 8001fba:	4413      	add	r3, r2
 8001fbc:	2203      	movs	r2, #3
 8001fbe:	759a      	strb	r2, [r3, #22]
 8001fc0:	4b16      	ldr	r3, [pc, #88]	; (800201c <checkRangeFindersReinitFlags+0x180>)
 8001fc2:	2200      	movs	r2, #0
 8001fc4:	711a      	strb	r2, [r3, #4]
 8001fc6:	f7ff fea9 	bl	8001d1c <showError>
 8001fca:	e023      	b.n	8002014 <checkRangeFindersReinitFlags+0x178>
 8001fcc:	79fb      	ldrb	r3, [r7, #7]
 8001fce:	332a      	adds	r3, #42	; 0x2a
 8001fd0:	b2db      	uxtb	r3, r3
 8001fd2:	4618      	mov	r0, r3
 8001fd4:	f001 ff44 	bl	8003e60 <rangeFinderStartContiniousMeasurements>
 8001fd8:	4603      	mov	r3, r0
 8001fda:	2b01      	cmp	r3, #1
 8001fdc:	d00a      	beq.n	8001ff4 <checkRangeFindersReinitFlags+0x158>
 8001fde:	79fb      	ldrb	r3, [r7, #7]
 8001fe0:	4a0f      	ldr	r2, [pc, #60]	; (8002020 <checkRangeFindersReinitFlags+0x184>)
 8001fe2:	4413      	add	r3, r2
 8001fe4:	2202      	movs	r2, #2
 8001fe6:	759a      	strb	r2, [r3, #22]
 8001fe8:	4b0c      	ldr	r3, [pc, #48]	; (800201c <checkRangeFindersReinitFlags+0x180>)
 8001fea:	2200      	movs	r2, #0
 8001fec:	711a      	strb	r2, [r3, #4]
 8001fee:	f7ff fe95 	bl	8001d1c <showError>
 8001ff2:	e00f      	b.n	8002014 <checkRangeFindersReinitFlags+0x178>
 8001ff4:	79fb      	ldrb	r3, [r7, #7]
 8001ff6:	4a0a      	ldr	r2, [pc, #40]	; (8002020 <checkRangeFindersReinitFlags+0x184>)
 8001ff8:	4413      	add	r3, r2
 8001ffa:	2200      	movs	r2, #0
 8001ffc:	f883 2026 	strb.w	r2, [r3, #38]	; 0x26
 8002000:	f7ff fe98 	bl	8001d34 <showNoError>
 8002004:	e006      	b.n	8002014 <checkRangeFindersReinitFlags+0x178>
 8002006:	79fb      	ldrb	r3, [r7, #7]
 8002008:	3301      	adds	r3, #1
 800200a:	71fb      	strb	r3, [r7, #7]
 800200c:	79fb      	ldrb	r3, [r7, #7]
 800200e:	2b0f      	cmp	r3, #15
 8002010:	d9c3      	bls.n	8001f9a <checkRangeFindersReinitFlags+0xfe>
 8002012:	bf00      	nop
 8002014:	3708      	adds	r7, #8
 8002016:	46bd      	mov	sp, r7
 8002018:	bd80      	pop	{r7, pc}
 800201a:	bf00      	nop
 800201c:	20014d90 	.word	0x20014d90
 8002020:	20014d9c 	.word	0x20014d9c

08002024 <checkCollisionAvoidance>:
 8002024:	b480      	push	{r7}
 8002026:	b083      	sub	sp, #12
 8002028:	af00      	add	r7, sp, #0
 800202a:	2300      	movs	r3, #0
 800202c:	71fb      	strb	r3, [r7, #7]
 800202e:	e0c9      	b.n	80021c4 <checkCollisionAvoidance+0x1a0>
 8002030:	79fb      	ldrb	r3, [r7, #7]
 8002032:	4a69      	ldr	r2, [pc, #420]	; (80021d8 <checkCollisionAvoidance+0x1b4>)
 8002034:	5cd3      	ldrb	r3, [r2, r3]
 8002036:	2b95      	cmp	r3, #149	; 0x95
 8002038:	f200 80c1 	bhi.w	80021be <checkCollisionAvoidance+0x19a>
 800203c:	4b67      	ldr	r3, [pc, #412]	; (80021dc <checkCollisionAvoidance+0x1b8>)
 800203e:	789b      	ldrb	r3, [r3, #2]
 8002040:	2b00      	cmp	r3, #0
 8002042:	d103      	bne.n	800204c <checkCollisionAvoidance+0x28>
 8002044:	4b65      	ldr	r3, [pc, #404]	; (80021dc <checkCollisionAvoidance+0x1b8>)
 8002046:	785b      	ldrb	r3, [r3, #1]
 8002048:	2b00      	cmp	r3, #0
 800204a:	d037      	beq.n	80020bc <checkCollisionAvoidance+0x98>
 800204c:	79fa      	ldrb	r2, [r7, #7]
 800204e:	4964      	ldr	r1, [pc, #400]	; (80021e0 <checkCollisionAvoidance+0x1bc>)
 8002050:	4613      	mov	r3, r2
 8002052:	005b      	lsls	r3, r3, #1
 8002054:	4413      	add	r3, r2
 8002056:	009b      	lsls	r3, r3, #2
 8002058:	440b      	add	r3, r1
 800205a:	ed93 7a00 	vldr	s14, [r3]
 800205e:	4b61      	ldr	r3, [pc, #388]	; (80021e4 <checkCollisionAvoidance+0x1c0>)
 8002060:	edd3 7a00 	vldr	s15, [r3]
 8002064:	ee67 7a27 	vmul.f32	s15, s14, s15
 8002068:	edc7 7a00 	vstr	s15, [r7]
 800206c:	edd7 7a00 	vldr	s15, [r7]
 8002070:	eef5 7ac0 	vcmpe.f32	s15, #0.0
 8002074:	eef1 fa10 	vmrs	APSR_nzcv, fpscr
 8002078:	dd03      	ble.n	8002082 <checkCollisionAvoidance+0x5e>
 800207a:	4b5a      	ldr	r3, [pc, #360]	; (80021e4 <checkCollisionAvoidance+0x1c0>)
 800207c:	f04f 0200 	mov.w	r2, #0
 8002080:	601a      	str	r2, [r3, #0]
 8002082:	79fa      	ldrb	r2, [r7, #7]
 8002084:	4956      	ldr	r1, [pc, #344]	; (80021e0 <checkCollisionAvoidance+0x1bc>)
 8002086:	4613      	mov	r3, r2
 8002088:	005b      	lsls	r3, r3, #1
 800208a:	4413      	add	r3, r2
 800208c:	009b      	lsls	r3, r3, #2
 800208e:	440b      	add	r3, r1
 8002090:	3304      	adds	r3, #4
 8002092:	ed93 7a00 	vldr	s14, [r3]
 8002096:	4b53      	ldr	r3, [pc, #332]	; (80021e4 <checkCollisionAvoidance+0x1c0>)
 8002098:	edd3 7a01 	vldr	s15, [r3, #4]
 800209c:	ee67 7a27 	vmul.f32	s15, s14, s15
 80020a0:	edc7 7a00 	vstr	s15, [r7]
 80020a4:	edd7 7a00 	vldr	s15, [r7]
 80020a8:	eef5 7ac0 	vcmpe.f32	s15, #0.0
 80020ac:	eef1 fa10 	vmrs	APSR_nzcv, fpscr
 80020b0:	dd57      	ble.n	8002162 <checkCollisionAvoidance+0x13e>
 80020b2:	4b4c      	ldr	r3, [pc, #304]	; (80021e4 <checkCollisionAvoidance+0x1c0>)
 80020b4:	f04f 0200 	mov.w	r2, #0
 80020b8:	605a      	str	r2, [r3, #4]
 80020ba:	e052      	b.n	8002162 <checkCollisionAvoidance+0x13e>
 80020bc:	79fa      	ldrb	r2, [r7, #7]
 80020be:	4948      	ldr	r1, [pc, #288]	; (80021e0 <checkCollisionAvoidance+0x1bc>)
 80020c0:	4613      	mov	r3, r2
 80020c2:	005b      	lsls	r3, r3, #1
 80020c4:	4413      	add	r3, r2
 80020c6:	009b      	lsls	r3, r3, #2
 80020c8:	440b      	add	r3, r1
 80020ca:	ed93 7a00 	vldr	s14, [r3]
 80020ce:	4b45      	ldr	r3, [pc, #276]	; (80021e4 <checkCollisionAvoidance+0x1c0>)
 80020d0:	edd3 7a00 	vldr	s15, [r3]
 80020d4:	ee27 7a27 	vmul.f32	s14, s14, s15
 80020d8:	79fa      	ldrb	r2, [r7, #7]
 80020da:	4941      	ldr	r1, [pc, #260]	; (80021e0 <checkCollisionAvoidance+0x1bc>)
 80020dc:	4613      	mov	r3, r2
 80020de:	005b      	lsls	r3, r3, #1
 80020e0:	4413      	add	r3, r2
 80020e2:	009b      	lsls	r3, r3, #2
 80020e4:	440b      	add	r3, r1
 80020e6:	3304      	adds	r3, #4
 80020e8:	edd3 6a00 	vldr	s13, [r3]
 80020ec:	4b3d      	ldr	r3, [pc, #244]	; (80021e4 <checkCollisionAvoidance+0x1c0>)
 80020ee:	edd3 7a01 	vldr	s15, [r3, #4]
 80020f2:	ee66 7aa7 	vmul.f32	s15, s13, s15
 80020f6:	ee77 7a27 	vadd.f32	s15, s14, s15
 80020fa:	edc7 7a00 	vstr	s15, [r7]
 80020fe:	edd7 7a00 	vldr	s15, [r7]
 8002102:	eef5 7ac0 	vcmpe.f32	s15, #0.0
 8002106:	eef1 fa10 	vmrs	APSR_nzcv, fpscr
 800210a:	dd2a      	ble.n	8002162 <checkCollisionAvoidance+0x13e>
 800210c:	4b35      	ldr	r3, [pc, #212]	; (80021e4 <checkCollisionAvoidance+0x1c0>)
 800210e:	ed93 7a00 	vldr	s14, [r3]
 8002112:	79fa      	ldrb	r2, [r7, #7]
 8002114:	4932      	ldr	r1, [pc, #200]	; (80021e0 <checkCollisionAvoidance+0x1bc>)
 8002116:	4613      	mov	r3, r2
 8002118:	005b      	lsls	r3, r3, #1
 800211a:	4413      	add	r3, r2
 800211c:	009b      	lsls	r3, r3, #2
 800211e:	440b      	add	r3, r1
 8002120:	edd3 6a00 	vldr	s13, [r3]
 8002124:	edd7 7a00 	vldr	s15, [r7]
 8002128:	ee66 7aa7 	vmul.f32	s15, s13, s15
 800212c:	ee77 7a67 	vsub.f32	s15, s14, s15
 8002130:	4b2c      	ldr	r3, [pc, #176]	; (80021e4 <checkCollisionAvoidance+0x1c0>)
 8002132:	edc3 7a00 	vstr	s15, [r3]
 8002136:	4b2b      	ldr	r3, [pc, #172]	; (80021e4 <checkCollisionAvoidance+0x1c0>)
 8002138:	ed93 7a01 	vldr	s14, [r3, #4]
 800213c:	79fa      	ldrb	r2, [r7, #7]
 800213e:	4928      	ldr	r1, [pc, #160]	; (80021e0 <checkCollisionAvoidance+0x1bc>)
 8002140:	4613      	mov	r3, r2
 8002142:	005b      	lsls	r3, r3, #1
 8002144:	4413      	add	r3, r2
 8002146:	009b      	lsls	r3, r3, #2
 8002148:	440b      	add	r3, r1
 800214a:	3304      	adds	r3, #4
 800214c:	edd3 6a00 	vldr	s13, [r3]
 8002150:	edd7 7a00 	vldr	s15, [r7]
 8002154:	ee66 7aa7 	vmul.f32	s15, s13, s15
 8002158:	ee77 7a67 	vsub.f32	s15, s14, s15
 800215c:	4b21      	ldr	r3, [pc, #132]	; (80021e4 <checkCollisionAvoidance+0x1c0>)
 800215e:	edc3 7a01 	vstr	s15, [r3, #4]
 8002162:	79fa      	ldrb	r2, [r7, #7]
 8002164:	491e      	ldr	r1, [pc, #120]	; (80021e0 <checkCollisionAvoidance+0x1bc>)
 8002166:	4613      	mov	r3, r2
 8002168:	005b      	lsls	r3, r3, #1
 800216a:	4413      	add	r3, r2
 800216c:	009b      	lsls	r3, r3, #2
 800216e:	440b      	add	r3, r1
 8002170:	3308      	adds	r3, #8
 8002172:	ed93 7a00 	vldr	s14, [r3]
 8002176:	4b1b      	ldr	r3, [pc, #108]	; (80021e4 <checkCollisionAvoidance+0x1c0>)
 8002178:	edd3 7a02 	vldr	s15, [r3, #8]
 800217c:	ee67 7a27 	vmul.f32	s15, s14, s15
 8002180:	edc7 7a00 	vstr	s15, [r7]
 8002184:	edd7 7a00 	vldr	s15, [r7]
 8002188:	eef5 7ac0 	vcmpe.f32	s15, #0.0
 800218c:	eef1 fa10 	vmrs	APSR_nzcv, fpscr
 8002190:	dd15      	ble.n	80021be <checkCollisionAvoidance+0x19a>
 8002192:	4b14      	ldr	r3, [pc, #80]	; (80021e4 <checkCollisionAvoidance+0x1c0>)
 8002194:	ed93 7a02 	vldr	s14, [r3, #8]
 8002198:	79fa      	ldrb	r2, [r7, #7]
 800219a:	4911      	ldr	r1, [pc, #68]	; (80021e0 <checkCollisionAvoidance+0x1bc>)
 800219c:	4613      	mov	r3, r2
 800219e:	005b      	lsls	r3, r3, #1
 80021a0:	4413      	add	r3, r2
 80021a2:	009b      	lsls	r3, r3, #2
 80021a4:	440b      	add	r3, r1
 80021a6:	3308      	adds	r3, #8
 80021a8:	edd3 6a00 	vldr	s13, [r3]
 80021ac:	edd7 7a00 	vldr	s15, [r7]
 80021b0:	ee66 7aa7 	vmul.f32	s15, s13, s15
 80021b4:	ee77 7a67 	vsub.f32	s15, s14, s15
 80021b8:	4b0a      	ldr	r3, [pc, #40]	; (80021e4 <checkCollisionAvoidance+0x1c0>)
 80021ba:	edc3 7a02 	vstr	s15, [r3, #8]
 80021be:	79fb      	ldrb	r3, [r7, #7]
 80021c0:	3301      	adds	r3, #1
 80021c2:	71fb      	strb	r3, [r7, #7]
 80021c4:	79fb      	ldrb	r3, [r7, #7]
 80021c6:	2b09      	cmp	r3, #9
 80021c8:	f67f af32 	bls.w	8002030 <checkCollisionAvoidance+0xc>
 80021cc:	bf00      	nop
 80021ce:	370c      	adds	r7, #12
 80021d0:	46bd      	mov	sp, r7
 80021d2:	f85d 7b04 	ldr.w	r7, [sp], #4
 80021d6:	4770      	bx	lr
 80021d8:	20014d9c 	.word	0x20014d9c
 80021dc:	20014fd4 	.word	0x20014fd4
 80021e0:	20000064 	.word	0x20000064
 80021e4:	20014fc8 	.word	0x20014fc8

080021e8 <postprocessDataForCalibration>:
 80021e8:	b480      	push	{r7}
 80021ea:	b083      	sub	sp, #12
 80021ec:	af00      	add	r7, sp, #0
 80021ee:	2300      	movs	r3, #0
 80021f0:	71fb      	strb	r3, [r7, #7]
 80021f2:	e01f      	b.n	8002234 <postprocessDataForCalibration+0x4c>
 80021f4:	79fb      	ldrb	r3, [r7, #7]
 80021f6:	330a      	adds	r3, #10
 80021f8:	4a13      	ldr	r2, [pc, #76]	; (8002248 <postprocessDataForCalibration+0x60>)
 80021fa:	5cd2      	ldrb	r2, [r2, r3]
 80021fc:	79fb      	ldrb	r3, [r7, #7]
 80021fe:	4913      	ldr	r1, [pc, #76]	; (800224c <postprocessDataForCalibration+0x64>)
 8002200:	5ccb      	ldrb	r3, [r1, r3]
 8002202:	429a      	cmp	r2, r3
 8002204:	d90e      	bls.n	8002224 <postprocessDataForCalibration+0x3c>
 8002206:	79fb      	ldrb	r3, [r7, #7]
 8002208:	330a      	adds	r3, #10
 800220a:	4a0f      	ldr	r2, [pc, #60]	; (8002248 <postprocessDataForCalibration+0x60>)
 800220c:	5cd2      	ldrb	r2, [r2, r3]
 800220e:	79fb      	ldrb	r3, [r7, #7]
 8002210:	490f      	ldr	r1, [pc, #60]	; (8002250 <postprocessDataForCalibration+0x68>)
 8002212:	5ccb      	ldrb	r3, [r1, r3]
 8002214:	429a      	cmp	r2, r3
 8002216:	d205      	bcs.n	8002224 <postprocessDataForCalibration+0x3c>
 8002218:	79fb      	ldrb	r3, [r7, #7]
 800221a:	4a0b      	ldr	r2, [pc, #44]	; (8002248 <postprocessDataForCalibration+0x60>)
 800221c:	4413      	add	r3, r2
 800221e:	2201      	movs	r2, #1
 8002220:	741a      	strb	r2, [r3, #16]
 8002222:	e004      	b.n	800222e <postprocessDataForCalibration+0x46>
 8002224:	79fb      	ldrb	r3, [r7, #7]
 8002226:	4a08      	ldr	r2, [pc, #32]	; (8002248 <postprocessDataForCalibration+0x60>)
 8002228:	4413      	add	r3, r2
 800222a:	2200      	movs	r2, #0
 800222c:	741a      	strb	r2, [r3, #16]
 800222e:	79fb      	ldrb	r3, [r7, #7]
 8002230:	3301      	adds	r3, #1
 8002232:	71fb      	strb	r3, [r7, #7]
 8002234:	79fb      	ldrb	r3, [r7, #7]
 8002236:	2b05      	cmp	r3, #5
 8002238:	d9dc      	bls.n	80021f4 <postprocessDataForCalibration+0xc>
 800223a:	bf00      	nop
 800223c:	370c      	adds	r7, #12
 800223e:	46bd      	mov	sp, r7
 8002240:	f85d 7b04 	ldr.w	r7, [sp], #4
 8002244:	4770      	bx	lr
 8002246:	bf00      	nop
 8002248:	20014d9c 	.word	0x20014d9c
 800224c:	20000054 	.word	0x20000054
 8002250:	2000005c 	.word	0x2000005c

08002254 <resetRangeFinder>:
 8002254:	b580      	push	{r7, lr}
 8002256:	b082      	sub	sp, #8
 8002258:	af00      	add	r7, sp, #0
 800225a:	4603      	mov	r3, r0
 800225c:	71fb      	strb	r3, [r7, #7]
 800225e:	4b1e      	ldr	r3, [pc, #120]	; (80022d8 <resetRangeFinder+0x84>)
 8002260:	8f1b      	ldrh	r3, [r3, #56]	; 0x38
 8002262:	b29a      	uxth	r2, r3
 8002264:	79fb      	ldrb	r3, [r7, #7]
 8002266:	2101      	movs	r1, #1
 8002268:	fa01 f303 	lsl.w	r3, r1, r3
 800226c:	b29b      	uxth	r3, r3
 800226e:	43db      	mvns	r3, r3
 8002270:	b29b      	uxth	r3, r3
 8002272:	4013      	ands	r3, r2
 8002274:	b29b      	uxth	r3, r3
 8002276:	b29a      	uxth	r2, r3
 8002278:	4b17      	ldr	r3, [pc, #92]	; (80022d8 <resetRangeFinder+0x84>)
 800227a:	871a      	strh	r2, [r3, #56]	; 0x38
 800227c:	4b16      	ldr	r3, [pc, #88]	; (80022d8 <resetRangeFinder+0x84>)
 800227e:	8f1b      	ldrh	r3, [r3, #56]	; 0x38
 8002280:	4618      	mov	r0, r3
 8002282:	2121      	movs	r1, #33	; 0x21
 8002284:	f000 f8e2 	bl	800244c <setExpanderVoltage>
 8002288:	4603      	mov	r3, r0
 800228a:	2b01      	cmp	r3, #1
 800228c:	d001      	beq.n	8002292 <resetRangeFinder+0x3e>
 800228e:	2300      	movs	r3, #0
 8002290:	e01e      	b.n	80022d0 <resetRangeFinder+0x7c>
 8002292:	2003      	movs	r0, #3
 8002294:	f000 fcf6 	bl	8002c84 <delayInTenthOfMs>
 8002298:	4b0f      	ldr	r3, [pc, #60]	; (80022d8 <resetRangeFinder+0x84>)
 800229a:	8f1b      	ldrh	r3, [r3, #56]	; 0x38
 800229c:	b29a      	uxth	r2, r3
 800229e:	79fb      	ldrb	r3, [r7, #7]
 80022a0:	2101      	movs	r1, #1
 80022a2:	fa01 f303 	lsl.w	r3, r1, r3
 80022a6:	b29b      	uxth	r3, r3
 80022a8:	4313      	orrs	r3, r2
 80022aa:	b29b      	uxth	r3, r3
 80022ac:	b29a      	uxth	r2, r3
 80022ae:	4b0a      	ldr	r3, [pc, #40]	; (80022d8 <resetRangeFinder+0x84>)
 80022b0:	871a      	strh	r2, [r3, #56]	; 0x38
 80022b2:	4b09      	ldr	r3, [pc, #36]	; (80022d8 <resetRangeFinder+0x84>)
 80022b4:	8f1b      	ldrh	r3, [r3, #56]	; 0x38
 80022b6:	4618      	mov	r0, r3
 80022b8:	2121      	movs	r1, #33	; 0x21
 80022ba:	f000 f8c7 	bl	800244c <setExpanderVoltage>
 80022be:	4603      	mov	r3, r0
 80022c0:	2b01      	cmp	r3, #1
 80022c2:	d001      	beq.n	80022c8 <resetRangeFinder+0x74>
 80022c4:	2300      	movs	r3, #0
 80022c6:	e003      	b.n	80022d0 <resetRangeFinder+0x7c>
 80022c8:	2010      	movs	r0, #16
 80022ca:	f000 fcdb 	bl	8002c84 <delayInTenthOfMs>
 80022ce:	2301      	movs	r3, #1
 80022d0:	4618      	mov	r0, r3
 80022d2:	3708      	adds	r7, #8
 80022d4:	46bd      	mov	sp, r7
 80022d6:	bd80      	pop	{r7, pc}
 80022d8:	20014d9c 	.word	0x20014d9c

080022dc <initRangeFinder>:
 80022dc:	b580      	push	{r7, lr}
 80022de:	b084      	sub	sp, #16
 80022e0:	af00      	add	r7, sp, #0
 80022e2:	4603      	mov	r3, r0
 80022e4:	71fb      	strb	r3, [r7, #7]
 80022e6:	79fb      	ldrb	r3, [r7, #7]
 80022e8:	4618      	mov	r0, r3
 80022ea:	f7ff ffb3 	bl	8002254 <resetRangeFinder>
 80022ee:	4603      	mov	r3, r0
 80022f0:	2b01      	cmp	r3, #1
 80022f2:	d005      	beq.n	8002300 <initRangeFinder+0x24>
 80022f4:	4b15      	ldr	r3, [pc, #84]	; (800234c <initRangeFinder+0x70>)
 80022f6:	2201      	movs	r2, #1
 80022f8:	f883 2036 	strb.w	r2, [r3, #54]	; 0x36
 80022fc:	2300      	movs	r3, #0
 80022fe:	e020      	b.n	8002342 <initRangeFinder+0x66>
 8002300:	79fb      	ldrb	r3, [r7, #7]
 8002302:	2b09      	cmp	r3, #9
 8002304:	d907      	bls.n	8002316 <initRangeFinder+0x3a>
 8002306:	2029      	movs	r0, #41	; 0x29
 8002308:	f001 fc16 	bl	8003b38 <rangeFinderInitContiniousInterruptNewSampleOpticalSwitchMode>
 800230c:	4603      	mov	r3, r0
 800230e:	2b01      	cmp	r3, #1
 8002310:	d009      	beq.n	8002326 <initRangeFinder+0x4a>
 8002312:	2300      	movs	r3, #0
 8002314:	e015      	b.n	8002342 <initRangeFinder+0x66>
 8002316:	2029      	movs	r0, #41	; 0x29
 8002318:	f001 fcae 	bl	8003c78 <rangeFinderInitContiniousInterruptNewSampleColAvoidMode>
 800231c:	4603      	mov	r3, r0
 800231e:	2b01      	cmp	r3, #1
 8002320:	d001      	beq.n	8002326 <initRangeFinder+0x4a>
 8002322:	2300      	movs	r3, #0
 8002324:	e00d      	b.n	8002342 <initRangeFinder+0x66>
 8002326:	79fb      	ldrb	r3, [r7, #7]
 8002328:	332a      	adds	r3, #42	; 0x2a
 800232a:	73fb      	strb	r3, [r7, #15]
 800232c:	7bfb      	ldrb	r3, [r7, #15]
 800232e:	2029      	movs	r0, #41	; 0x29
 8002330:	4619      	mov	r1, r3
 8002332:	f001 fd41 	bl	8003db8 <rangeFinderChangeAddress>
 8002336:	4603      	mov	r3, r0
 8002338:	2b01      	cmp	r3, #1
 800233a:	d001      	beq.n	8002340 <initRangeFinder+0x64>
 800233c:	2300      	movs	r3, #0
 800233e:	e000      	b.n	8002342 <initRangeFinder+0x66>
 8002340:	2301      	movs	r3, #1
 8002342:	4618      	mov	r0, r3
 8002344:	3710      	adds	r7, #16
 8002346:	46bd      	mov	sp, r7
 8002348:	bd80      	pop	{r7, pc}
 800234a:	bf00      	nop
 800234c:	20014d9c 	.word	0x20014d9c

08002350 <resetExpander>:
 8002350:	b580      	push	{r7, lr}
 8002352:	af00      	add	r7, sp, #0
 8002354:	4808      	ldr	r0, [pc, #32]	; (8002378 <resetExpander+0x28>)
 8002356:	2100      	movs	r1, #0
 8002358:	2200      	movs	r2, #0
 800235a:	f7fe ff59 	bl	8001210 <gpioPinSetLevel>
 800235e:	2002      	movs	r0, #2
 8002360:	f000 fc90 	bl	8002c84 <delayInTenthOfMs>
 8002364:	4804      	ldr	r0, [pc, #16]	; (8002378 <resetExpander+0x28>)
 8002366:	2100      	movs	r1, #0
 8002368:	2201      	movs	r2, #1
 800236a:	f7fe ff51 	bl	8001210 <gpioPinSetLevel>
 800236e:	2002      	movs	r0, #2
 8002370:	f000 fc88 	bl	8002c84 <delayInTenthOfMs>
 8002374:	bf00      	nop
 8002376:	bd80      	pop	{r7, pc}
 8002378:	40020c00 	.word	0x40020c00

0800237c <powerTurnOnExpander>:
 800237c:	b580      	push	{r7, lr}
 800237e:	af00      	add	r7, sp, #0
 8002380:	4803      	ldr	r0, [pc, #12]	; (8002390 <powerTurnOnExpander+0x14>)
 8002382:	2103      	movs	r1, #3
 8002384:	2200      	movs	r2, #0
 8002386:	f7fe ff43 	bl	8001210 <gpioPinSetLevel>
 800238a:	bf00      	nop
 800238c:	bd80      	pop	{r7, pc}
 800238e:	bf00      	nop
 8002390:	40020c00 	.word	0x40020c00

08002394 <checkExpander>:
 8002394:	b580      	push	{r7, lr}
 8002396:	b082      	sub	sp, #8
 8002398:	af00      	add	r7, sp, #0
 800239a:	1dfb      	adds	r3, r7, #7
 800239c:	2005      	movs	r0, #5
 800239e:	4619      	mov	r1, r3
 80023a0:	2221      	movs	r2, #33	; 0x21
 80023a2:	f000 f89f 	bl	80024e4 <expanderReadReg>
 80023a6:	4603      	mov	r3, r0
 80023a8:	2b01      	cmp	r3, #1
 80023aa:	d001      	beq.n	80023b0 <checkExpander+0x1c>
 80023ac:	2302      	movs	r3, #2
 80023ae:	e005      	b.n	80023bc <checkExpander+0x28>
 80023b0:	79fb      	ldrb	r3, [r7, #7]
 80023b2:	2ba2      	cmp	r3, #162	; 0xa2
 80023b4:	d001      	beq.n	80023ba <checkExpander+0x26>
 80023b6:	2301      	movs	r3, #1
 80023b8:	e000      	b.n	80023bc <checkExpander+0x28>
 80023ba:	2300      	movs	r3, #0
 80023bc:	4618      	mov	r0, r3
 80023be:	3708      	adds	r7, #8
 80023c0:	46bd      	mov	sp, r7
 80023c2:	bd80      	pop	{r7, pc}

080023c4 <initExpanderOutputMode>:
 80023c4:	b580      	push	{r7, lr}
 80023c6:	b082      	sub	sp, #8
 80023c8:	af00      	add	r7, sp, #0
 80023ca:	4603      	mov	r3, r0
 80023cc:	71fb      	strb	r3, [r7, #7]
 80023ce:	f7ff ffbf 	bl	8002350 <resetExpander>
 80023d2:	79fb      	ldrb	r3, [r7, #7]
 80023d4:	200a      	movs	r0, #10
 80023d6:	21a2      	movs	r1, #162	; 0xa2
 80023d8:	461a      	mov	r2, r3
 80023da:	f000 f861 	bl	80024a0 <expanderWriteReg>
 80023de:	4603      	mov	r3, r0
 80023e0:	2b01      	cmp	r3, #1
 80023e2:	d001      	beq.n	80023e8 <initExpanderOutputMode+0x24>
 80023e4:	2300      	movs	r3, #0
 80023e6:	e02c      	b.n	8002442 <initExpanderOutputMode+0x7e>
 80023e8:	79fb      	ldrb	r3, [r7, #7]
 80023ea:	2000      	movs	r0, #0
 80023ec:	2100      	movs	r1, #0
 80023ee:	461a      	mov	r2, r3
 80023f0:	f000 f856 	bl	80024a0 <expanderWriteReg>
 80023f4:	4603      	mov	r3, r0
 80023f6:	2b01      	cmp	r3, #1
 80023f8:	d001      	beq.n	80023fe <initExpanderOutputMode+0x3a>
 80023fa:	2300      	movs	r3, #0
 80023fc:	e021      	b.n	8002442 <initExpanderOutputMode+0x7e>
 80023fe:	79fb      	ldrb	r3, [r7, #7]
 8002400:	2010      	movs	r0, #16
 8002402:	2100      	movs	r1, #0
 8002404:	461a      	mov	r2, r3
 8002406:	f000 f84b 	bl	80024a0 <expanderWriteReg>
 800240a:	4603      	mov	r3, r0
 800240c:	2b01      	cmp	r3, #1
 800240e:	d001      	beq.n	8002414 <initExpanderOutputMode+0x50>
 8002410:	2300      	movs	r3, #0
 8002412:	e016      	b.n	8002442 <initExpanderOutputMode+0x7e>
 8002414:	79fb      	ldrb	r3, [r7, #7]
 8002416:	200a      	movs	r0, #10
 8002418:	2100      	movs	r1, #0
 800241a:	461a      	mov	r2, r3
 800241c:	f000 f840 	bl	80024a0 <expanderWriteReg>
 8002420:	4603      	mov	r3, r0
 8002422:	2b01      	cmp	r3, #1
 8002424:	d001      	beq.n	800242a <initExpanderOutputMode+0x66>
 8002426:	2300      	movs	r3, #0
 8002428:	e00b      	b.n	8002442 <initExpanderOutputMode+0x7e>
 800242a:	79fb      	ldrb	r3, [r7, #7]
 800242c:	201a      	movs	r0, #26
 800242e:	2100      	movs	r1, #0
 8002430:	461a      	mov	r2, r3
 8002432:	f000 f835 	bl	80024a0 <expanderWriteReg>
 8002436:	4603      	mov	r3, r0
 8002438:	2b01      	cmp	r3, #1
 800243a:	d001      	beq.n	8002440 <initExpanderOutputMode+0x7c>
 800243c:	2300      	movs	r3, #0
 800243e:	e000      	b.n	8002442 <initExpanderOutputMode+0x7e>
 8002440:	2301      	movs	r3, #1
 8002442:	4618      	mov	r0, r3
 8002444:	3708      	adds	r7, #8
 8002446:	46bd      	mov	sp, r7
 8002448:	bd80      	pop	{r7, pc}
 800244a:	bf00      	nop

0800244c <setExpanderVoltage>:
 800244c:	b580      	push	{r7, lr}
 800244e:	b084      	sub	sp, #16
 8002450:	af00      	add	r7, sp, #0
 8002452:	4602      	mov	r2, r0
 8002454:	460b      	mov	r3, r1
 8002456:	80fa      	strh	r2, [r7, #6]
 8002458:	717b      	strb	r3, [r7, #5]
 800245a:	88fb      	ldrh	r3, [r7, #6]
 800245c:	73fb      	strb	r3, [r7, #15]
 800245e:	88fb      	ldrh	r3, [r7, #6]
 8002460:	0a1b      	lsrs	r3, r3, #8
 8002462:	b29b      	uxth	r3, r3
 8002464:	73bb      	strb	r3, [r7, #14]
 8002466:	7bfa      	ldrb	r2, [r7, #15]
 8002468:	797b      	ldrb	r3, [r7, #5]
 800246a:	200a      	movs	r0, #10
 800246c:	4611      	mov	r1, r2
 800246e:	461a      	mov	r2, r3
 8002470:	f000 f816 	bl	80024a0 <expanderWriteReg>
 8002474:	4603      	mov	r3, r0
 8002476:	2b01      	cmp	r3, #1
 8002478:	d001      	beq.n	800247e <setExpanderVoltage+0x32>
 800247a:	2300      	movs	r3, #0
 800247c:	e00c      	b.n	8002498 <setExpanderVoltage+0x4c>
 800247e:	7bba      	ldrb	r2, [r7, #14]
 8002480:	797b      	ldrb	r3, [r7, #5]
 8002482:	201a      	movs	r0, #26
 8002484:	4611      	mov	r1, r2
 8002486:	461a      	mov	r2, r3
 8002488:	f000 f80a 	bl	80024a0 <expanderWriteReg>
 800248c:	4603      	mov	r3, r0
 800248e:	2b01      	cmp	r3, #1
 8002490:	d001      	beq.n	8002496 <setExpanderVoltage+0x4a>
 8002492:	2300      	movs	r3, #0
 8002494:	e000      	b.n	8002498 <setExpanderVoltage+0x4c>
 8002496:	2301      	movs	r3, #1
 8002498:	4618      	mov	r0, r3
 800249a:	3710      	adds	r7, #16
 800249c:	46bd      	mov	sp, r7
 800249e:	bd80      	pop	{r7, pc}

080024a0 <expanderWriteReg>:
 80024a0:	b580      	push	{r7, lr}
 80024a2:	b084      	sub	sp, #16
 80024a4:	af00      	add	r7, sp, #0
 80024a6:	4613      	mov	r3, r2
 80024a8:	4602      	mov	r2, r0
 80024aa:	71fa      	strb	r2, [r7, #7]
 80024ac:	460a      	mov	r2, r1
 80024ae:	71ba      	strb	r2, [r7, #6]
 80024b0:	717b      	strb	r3, [r7, #5]
 80024b2:	79fb      	ldrb	r3, [r7, #7]
 80024b4:	733b      	strb	r3, [r7, #12]
 80024b6:	79bb      	ldrb	r3, [r7, #6]
 80024b8:	737b      	strb	r3, [r7, #13]
 80024ba:	f107 020c 	add.w	r2, r7, #12
 80024be:	797b      	ldrb	r3, [r7, #5]
 80024c0:	4807      	ldr	r0, [pc, #28]	; (80024e0 <expanderWriteReg+0x40>)
 80024c2:	4611      	mov	r1, r2
 80024c4:	2202      	movs	r2, #2
 80024c6:	f7ff f9b3 	bl	8001830 <I2CSendBytes>
 80024ca:	4603      	mov	r3, r0
 80024cc:	2b01      	cmp	r3, #1
 80024ce:	d001      	beq.n	80024d4 <expanderWriteReg+0x34>
 80024d0:	2300      	movs	r3, #0
 80024d2:	e000      	b.n	80024d6 <expanderWriteReg+0x36>
 80024d4:	2301      	movs	r3, #1
 80024d6:	4618      	mov	r0, r3
 80024d8:	3710      	adds	r7, #16
 80024da:	46bd      	mov	sp, r7
 80024dc:	bd80      	pop	{r7, pc}
 80024de:	bf00      	nop
 80024e0:	20014d90 	.word	0x20014d90

080024e4 <expanderReadReg>:
 80024e4:	b580      	push	{r7, lr}
 80024e6:	b082      	sub	sp, #8
 80024e8:	af00      	add	r7, sp, #0
 80024ea:	6039      	str	r1, [r7, #0]
 80024ec:	4613      	mov	r3, r2
 80024ee:	4602      	mov	r2, r0
 80024f0:	71fa      	strb	r2, [r7, #7]
 80024f2:	71bb      	strb	r3, [r7, #6]
 80024f4:	1dfa      	adds	r2, r7, #7
 80024f6:	79bb      	ldrb	r3, [r7, #6]
 80024f8:	480c      	ldr	r0, [pc, #48]	; (800252c <expanderReadReg+0x48>)
 80024fa:	4611      	mov	r1, r2
 80024fc:	2201      	movs	r2, #1
 80024fe:	f7ff f997 	bl	8001830 <I2CSendBytes>
 8002502:	4603      	mov	r3, r0
 8002504:	2b01      	cmp	r3, #1
 8002506:	d001      	beq.n	800250c <expanderReadReg+0x28>
 8002508:	2300      	movs	r3, #0
 800250a:	e00b      	b.n	8002524 <expanderReadReg+0x40>
 800250c:	79bb      	ldrb	r3, [r7, #6]
 800250e:	4807      	ldr	r0, [pc, #28]	; (800252c <expanderReadReg+0x48>)
 8002510:	6839      	ldr	r1, [r7, #0]
 8002512:	2201      	movs	r2, #1
 8002514:	f7ff f9e2 	bl	80018dc <I2CReadBytes>
 8002518:	4603      	mov	r3, r0
 800251a:	2b01      	cmp	r3, #1
 800251c:	d001      	beq.n	8002522 <expanderReadReg+0x3e>
 800251e:	2300      	movs	r3, #0
 8002520:	e000      	b.n	8002524 <expanderReadReg+0x40>
 8002522:	2301      	movs	r3, #1
 8002524:	4618      	mov	r0, r3
 8002526:	3708      	adds	r7, #8
 8002528:	46bd      	mov	sp, r7
 800252a:	bd80      	pop	{r7, pc}
 800252c:	20014d90 	.word	0x20014d90

08002530 <incrementPtr>:
 8002530:	b480      	push	{r7}
 8002532:	b085      	sub	sp, #20
 8002534:	af00      	add	r7, sp, #0
 8002536:	6078      	str	r0, [r7, #4]
 8002538:	6039      	str	r1, [r7, #0]
 800253a:	687b      	ldr	r3, [r7, #4]
 800253c:	60bb      	str	r3, [r7, #8]
 800253e:	2300      	movs	r3, #0
 8002540:	60fb      	str	r3, [r7, #12]
 8002542:	e00f      	b.n	8002564 <incrementPtr+0x34>
 8002544:	68bb      	ldr	r3, [r7, #8]
 8002546:	3301      	adds	r3, #1
 8002548:	60bb      	str	r3, [r7, #8]
 800254a:	4b0c      	ldr	r3, [pc, #48]	; (800257c <incrementPtr+0x4c>)
 800254c:	781b      	ldrb	r3, [r3, #0]
 800254e:	461a      	mov	r2, r3
 8002550:	4b0b      	ldr	r3, [pc, #44]	; (8002580 <incrementPtr+0x50>)
 8002552:	441a      	add	r2, r3
 8002554:	68bb      	ldr	r3, [r7, #8]
 8002556:	429a      	cmp	r2, r3
 8002558:	d801      	bhi.n	800255e <incrementPtr+0x2e>
 800255a:	4b09      	ldr	r3, [pc, #36]	; (8002580 <incrementPtr+0x50>)
 800255c:	60bb      	str	r3, [r7, #8]
 800255e:	68fb      	ldr	r3, [r7, #12]
 8002560:	3301      	adds	r3, #1
 8002562:	60fb      	str	r3, [r7, #12]
 8002564:	68fa      	ldr	r2, [r7, #12]
 8002566:	683b      	ldr	r3, [r7, #0]
 8002568:	429a      	cmp	r2, r3
 800256a:	d3eb      	bcc.n	8002544 <incrementPtr+0x14>
 800256c:	68bb      	ldr	r3, [r7, #8]
 800256e:	4618      	mov	r0, r3
 8002570:	3714      	adds	r7, #20
 8002572:	46bd      	mov	sp, r7
 8002574:	f85d 7b04 	ldr.w	r7, [sp], #4
 8002578:	4770      	bx	lr
 800257a:	bf00      	nop
 800257c:	200000e0 	.word	0x200000e0
 8002580:	20014dd8 	.word	0x20014dd8

08002584 <USART1_IRQHandler>:
 8002584:	b580      	push	{r7, lr}
 8002586:	b082      	sub	sp, #8
 8002588:	af00      	add	r7, sp, #0
 800258a:	4b10      	ldr	r3, [pc, #64]	; (80025cc <USART1_IRQHandler+0x48>)
 800258c:	681b      	ldr	r3, [r3, #0]
 800258e:	f003 0320 	and.w	r3, r3, #32
 8002592:	2b00      	cmp	r3, #0
 8002594:	d016      	beq.n	80025c4 <USART1_IRQHandler+0x40>
 8002596:	4b0d      	ldr	r3, [pc, #52]	; (80025cc <USART1_IRQHandler+0x48>)
 8002598:	4a0c      	ldr	r2, [pc, #48]	; (80025cc <USART1_IRQHandler+0x48>)
 800259a:	6812      	ldr	r2, [r2, #0]
 800259c:	f022 0220 	bic.w	r2, r2, #32
 80025a0:	601a      	str	r2, [r3, #0]
 80025a2:	4b0a      	ldr	r3, [pc, #40]	; (80025cc <USART1_IRQHandler+0x48>)
 80025a4:	685b      	ldr	r3, [r3, #4]
 80025a6:	71fb      	strb	r3, [r7, #7]
 80025a8:	4b09      	ldr	r3, [pc, #36]	; (80025d0 <USART1_IRQHandler+0x4c>)
 80025aa:	681b      	ldr	r3, [r3, #0]
 80025ac:	79fa      	ldrb	r2, [r7, #7]
 80025ae:	701a      	strb	r2, [r3, #0]
 80025b0:	4b07      	ldr	r3, [pc, #28]	; (80025d0 <USART1_IRQHandler+0x4c>)
 80025b2:	681b      	ldr	r3, [r3, #0]
 80025b4:	4618      	mov	r0, r3
 80025b6:	2101      	movs	r1, #1
 80025b8:	f7ff ffba 	bl	8002530 <incrementPtr>
 80025bc:	4602      	mov	r2, r0
 80025be:	4b04      	ldr	r3, [pc, #16]	; (80025d0 <USART1_IRQHandler+0x4c>)
 80025c0:	601a      	str	r2, [r3, #0]
 80025c2:	bf00      	nop
 80025c4:	3708      	adds	r7, #8
 80025c6:	46bd      	mov	sp, r7
 80025c8:	bd80      	pop	{r7, pc}
 80025ca:	bf00      	nop
 80025cc:	40011000 	.word	0x40011000
 80025d0:	200000dc 	.word	0x200000dc

080025d4 <sendServoCommand>:
 80025d4:	b580      	push	{r7, lr}
 80025d6:	b084      	sub	sp, #16
 80025d8:	af00      	add	r7, sp, #0
 80025da:	603b      	str	r3, [r7, #0]
 80025dc:	4603      	mov	r3, r0
 80025de:	71fb      	strb	r3, [r7, #7]
 80025e0:	460b      	mov	r3, r1
 80025e2:	71bb      	strb	r3, [r7, #6]
 80025e4:	4613      	mov	r3, r2
 80025e6:	717b      	strb	r3, [r7, #5]
 80025e8:	20ff      	movs	r0, #255	; 0xff
 80025ea:	f000 f983 	bl	80028f4 <sendServoByte>
 80025ee:	20ff      	movs	r0, #255	; 0xff
 80025f0:	f000 f980 	bl	80028f4 <sendServoByte>
 80025f4:	79fb      	ldrb	r3, [r7, #7]
 80025f6:	4618      	mov	r0, r3
 80025f8:	f000 f97c 	bl	80028f4 <sendServoByte>
 80025fc:	79fb      	ldrb	r3, [r7, #7]
 80025fe:	73fb      	strb	r3, [r7, #15]
 8002600:	797b      	ldrb	r3, [r7, #5]
 8002602:	3302      	adds	r3, #2
 8002604:	b2db      	uxtb	r3, r3
 8002606:	4618      	mov	r0, r3
 8002608:	f000 f974 	bl	80028f4 <sendServoByte>
 800260c:	79bb      	ldrb	r3, [r7, #6]
 800260e:	4618      	mov	r0, r3
 8002610:	f000 f970 	bl	80028f4 <sendServoByte>
 8002614:	797a      	ldrb	r2, [r7, #5]
 8002616:	79bb      	ldrb	r3, [r7, #6]
 8002618:	4413      	add	r3, r2
 800261a:	b2da      	uxtb	r2, r3
 800261c:	7bfb      	ldrb	r3, [r7, #15]
 800261e:	4413      	add	r3, r2
 8002620:	b2db      	uxtb	r3, r3
 8002622:	3302      	adds	r3, #2
 8002624:	73fb      	strb	r3, [r7, #15]
 8002626:	2300      	movs	r3, #0
 8002628:	73bb      	strb	r3, [r7, #14]
 800262a:	e010      	b.n	800264e <sendServoCommand+0x7a>
 800262c:	7bbb      	ldrb	r3, [r7, #14]
 800262e:	683a      	ldr	r2, [r7, #0]
 8002630:	4413      	add	r3, r2
 8002632:	781b      	ldrb	r3, [r3, #0]
 8002634:	4618      	mov	r0, r3
 8002636:	f000 f95d 	bl	80028f4 <sendServoByte>
 800263a:	7bbb      	ldrb	r3, [r7, #14]
 800263c:	683a      	ldr	r2, [r7, #0]
 800263e:	4413      	add	r3, r2
 8002640:	781a      	ldrb	r2, [r3, #0]
 8002642:	7bfb      	ldrb	r3, [r7, #15]
 8002644:	4413      	add	r3, r2
 8002646:	73fb      	strb	r3, [r7, #15]
 8002648:	7bbb      	ldrb	r3, [r7, #14]
 800264a:	3301      	adds	r3, #1
 800264c:	73bb      	strb	r3, [r7, #14]
 800264e:	7bba      	ldrb	r2, [r7, #14]
 8002650:	797b      	ldrb	r3, [r7, #5]
 8002652:	429a      	cmp	r2, r3
 8002654:	d3ea      	bcc.n	800262c <sendServoCommand+0x58>
 8002656:	7bfb      	ldrb	r3, [r7, #15]
 8002658:	43db      	mvns	r3, r3
 800265a:	b2db      	uxtb	r3, r3
 800265c:	4618      	mov	r0, r3
 800265e:	f000 f949 	bl	80028f4 <sendServoByte>
 8002662:	3710      	adds	r7, #16
 8002664:	46bd      	mov	sp, r7
 8002666:	bd80      	pop	{r7, pc}

08002668 <getServoResponse>:
 8002668:	b590      	push	{r4, r7, lr}
 800266a:	b083      	sub	sp, #12
 800266c:	af00      	add	r7, sp, #0
 800266e:	2300      	movs	r3, #0
 8002670:	80fb      	strh	r3, [r7, #6]
 8002672:	f000 f95b 	bl	800292c <clearServoReceiveBuffer>
 8002676:	e009      	b.n	800268c <getServoResponse+0x24>
 8002678:	88fb      	ldrh	r3, [r7, #6]
 800267a:	3301      	adds	r3, #1
 800267c:	80fb      	strh	r3, [r7, #6]
 800267e:	88fa      	ldrh	r2, [r7, #6]
 8002680:	f644 6320 	movw	r3, #20000	; 0x4e20
 8002684:	429a      	cmp	r2, r3
 8002686:	d901      	bls.n	800268c <getServoResponse+0x24>
 8002688:	2300      	movs	r3, #0
 800268a:	e077      	b.n	800277c <getServoResponse+0x114>
 800268c:	f000 f95c 	bl	8002948 <getServoBytesAvailable>
 8002690:	4603      	mov	r3, r0
 8002692:	2b03      	cmp	r3, #3
 8002694:	d9f0      	bls.n	8002678 <getServoResponse+0x10>
 8002696:	2300      	movs	r3, #0
 8002698:	80fb      	strh	r3, [r7, #6]
 800269a:	f000 f975 	bl	8002988 <getServoByte>
 800269e:	f000 f973 	bl	8002988 <getServoByte>
 80026a2:	f000 f971 	bl	8002988 <getServoByte>
 80026a6:	4603      	mov	r3, r0
 80026a8:	461a      	mov	r2, r3
 80026aa:	4b36      	ldr	r3, [pc, #216]	; (8002784 <getServoResponse+0x11c>)
 80026ac:	701a      	strb	r2, [r3, #0]
 80026ae:	f000 f96b 	bl	8002988 <getServoByte>
 80026b2:	4603      	mov	r3, r0
 80026b4:	461a      	mov	r2, r3
 80026b6:	4b33      	ldr	r3, [pc, #204]	; (8002784 <getServoResponse+0x11c>)
 80026b8:	705a      	strb	r2, [r3, #1]
 80026ba:	4b32      	ldr	r3, [pc, #200]	; (8002784 <getServoResponse+0x11c>)
 80026bc:	785b      	ldrb	r3, [r3, #1]
 80026be:	2b1b      	cmp	r3, #27
 80026c0:	d901      	bls.n	80026c6 <getServoResponse+0x5e>
 80026c2:	2300      	movs	r3, #0
 80026c4:	e05a      	b.n	800277c <getServoResponse+0x114>
 80026c6:	e009      	b.n	80026dc <getServoResponse+0x74>
 80026c8:	88fb      	ldrh	r3, [r7, #6]
 80026ca:	3301      	adds	r3, #1
 80026cc:	80fb      	strh	r3, [r7, #6]
 80026ce:	88fa      	ldrh	r2, [r7, #6]
 80026d0:	f644 6320 	movw	r3, #20000	; 0x4e20
 80026d4:	429a      	cmp	r2, r3
 80026d6:	d901      	bls.n	80026dc <getServoResponse+0x74>
 80026d8:	2300      	movs	r3, #0
 80026da:	e04f      	b.n	800277c <getServoResponse+0x114>
 80026dc:	f000 f934 	bl	8002948 <getServoBytesAvailable>
 80026e0:	4602      	mov	r2, r0
 80026e2:	4b28      	ldr	r3, [pc, #160]	; (8002784 <getServoResponse+0x11c>)
 80026e4:	785b      	ldrb	r3, [r3, #1]
 80026e6:	429a      	cmp	r2, r3
 80026e8:	d3ee      	bcc.n	80026c8 <getServoResponse+0x60>
 80026ea:	f000 f94d 	bl	8002988 <getServoByte>
 80026ee:	4603      	mov	r3, r0
 80026f0:	461a      	mov	r2, r3
 80026f2:	4b24      	ldr	r3, [pc, #144]	; (8002784 <getServoResponse+0x11c>)
 80026f4:	709a      	strb	r2, [r3, #2]
 80026f6:	4b23      	ldr	r3, [pc, #140]	; (8002784 <getServoResponse+0x11c>)
 80026f8:	789a      	ldrb	r2, [r3, #2]
 80026fa:	4b23      	ldr	r3, [pc, #140]	; (8002788 <getServoResponse+0x120>)
 80026fc:	701a      	strb	r2, [r3, #0]
 80026fe:	2300      	movs	r3, #0
 8002700:	717b      	strb	r3, [r7, #5]
 8002702:	e00a      	b.n	800271a <getServoResponse+0xb2>
 8002704:	797c      	ldrb	r4, [r7, #5]
 8002706:	f000 f93f 	bl	8002988 <getServoByte>
 800270a:	4603      	mov	r3, r0
 800270c:	461a      	mov	r2, r3
 800270e:	4b1d      	ldr	r3, [pc, #116]	; (8002784 <getServoResponse+0x11c>)
 8002710:	4423      	add	r3, r4
 8002712:	70da      	strb	r2, [r3, #3]
 8002714:	797b      	ldrb	r3, [r7, #5]
 8002716:	3301      	adds	r3, #1
 8002718:	717b      	strb	r3, [r7, #5]
 800271a:	797a      	ldrb	r2, [r7, #5]
 800271c:	4b19      	ldr	r3, [pc, #100]	; (8002784 <getServoResponse+0x11c>)
 800271e:	785b      	ldrb	r3, [r3, #1]
 8002720:	3b02      	subs	r3, #2
 8002722:	429a      	cmp	r2, r3
 8002724:	dbee      	blt.n	8002704 <getServoResponse+0x9c>
 8002726:	4b17      	ldr	r3, [pc, #92]	; (8002784 <getServoResponse+0x11c>)
 8002728:	781a      	ldrb	r2, [r3, #0]
 800272a:	4b16      	ldr	r3, [pc, #88]	; (8002784 <getServoResponse+0x11c>)
 800272c:	785b      	ldrb	r3, [r3, #1]
 800272e:	4413      	add	r3, r2
 8002730:	b2da      	uxtb	r2, r3
 8002732:	4b14      	ldr	r3, [pc, #80]	; (8002784 <getServoResponse+0x11c>)
 8002734:	789b      	ldrb	r3, [r3, #2]
 8002736:	4413      	add	r3, r2
 8002738:	713b      	strb	r3, [r7, #4]
 800273a:	2300      	movs	r3, #0
 800273c:	717b      	strb	r3, [r7, #5]
 800273e:	e009      	b.n	8002754 <getServoResponse+0xec>
 8002740:	797b      	ldrb	r3, [r7, #5]
 8002742:	4a10      	ldr	r2, [pc, #64]	; (8002784 <getServoResponse+0x11c>)
 8002744:	4413      	add	r3, r2
 8002746:	78da      	ldrb	r2, [r3, #3]
 8002748:	793b      	ldrb	r3, [r7, #4]
 800274a:	4413      	add	r3, r2
 800274c:	713b      	strb	r3, [r7, #4]
 800274e:	797b      	ldrb	r3, [r7, #5]
 8002750:	3301      	adds	r3, #1
 8002752:	717b      	strb	r3, [r7, #5]
 8002754:	797a      	ldrb	r2, [r7, #5]
 8002756:	4b0b      	ldr	r3, [pc, #44]	; (8002784 <getServoResponse+0x11c>)
 8002758:	785b      	ldrb	r3, [r3, #1]
 800275a:	3b02      	subs	r3, #2
 800275c:	429a      	cmp	r2, r3
 800275e:	dbef      	blt.n	8002740 <getServoResponse+0xd8>
 8002760:	793b      	ldrb	r3, [r7, #4]
 8002762:	43db      	mvns	r3, r3
 8002764:	713b      	strb	r3, [r7, #4]
 8002766:	f000 f90f 	bl	8002988 <getServoByte>
 800276a:	4603      	mov	r3, r0
 800276c:	70fb      	strb	r3, [r7, #3]
 800276e:	793a      	ldrb	r2, [r7, #4]
 8002770:	78fb      	ldrb	r3, [r7, #3]
 8002772:	429a      	cmp	r2, r3
 8002774:	d001      	beq.n	800277a <getServoResponse+0x112>
 8002776:	2300      	movs	r3, #0
 8002778:	e000      	b.n	800277c <getServoResponse+0x114>
 800277a:	2301      	movs	r3, #1
 800277c:	4618      	mov	r0, r3
 800277e:	370c      	adds	r7, #12
 8002780:	46bd      	mov	sp, r7
 8002782:	bd90      	pop	{r4, r7, pc}
 8002784:	20014ec4 	.word	0x20014ec4
 8002788:	2000023c 	.word	0x2000023c

0800278c <getAndCheckResponse>:
 800278c:	b580      	push	{r7, lr}
 800278e:	b082      	sub	sp, #8
 8002790:	af00      	add	r7, sp, #0
 8002792:	4603      	mov	r3, r0
 8002794:	71fb      	strb	r3, [r7, #7]
 8002796:	f7ff ff67 	bl	8002668 <getServoResponse>
 800279a:	4603      	mov	r3, r0
 800279c:	f083 0301 	eor.w	r3, r3, #1
 80027a0:	b2db      	uxtb	r3, r3
 80027a2:	2b00      	cmp	r3, #0
 80027a4:	d001      	beq.n	80027aa <getAndCheckResponse+0x1e>
 80027a6:	2300      	movs	r3, #0
 80027a8:	e00d      	b.n	80027c6 <getAndCheckResponse+0x3a>
 80027aa:	4b09      	ldr	r3, [pc, #36]	; (80027d0 <getAndCheckResponse+0x44>)
 80027ac:	781b      	ldrb	r3, [r3, #0]
 80027ae:	79fa      	ldrb	r2, [r7, #7]
 80027b0:	429a      	cmp	r2, r3
 80027b2:	d001      	beq.n	80027b8 <getAndCheckResponse+0x2c>
 80027b4:	2300      	movs	r3, #0
 80027b6:	e006      	b.n	80027c6 <getAndCheckResponse+0x3a>
 80027b8:	4b05      	ldr	r3, [pc, #20]	; (80027d0 <getAndCheckResponse+0x44>)
 80027ba:	789b      	ldrb	r3, [r3, #2]
 80027bc:	2b00      	cmp	r3, #0
 80027be:	d001      	beq.n	80027c4 <getAndCheckResponse+0x38>
 80027c0:	2300      	movs	r3, #0
 80027c2:	e000      	b.n	80027c6 <getAndCheckResponse+0x3a>
 80027c4:	2301      	movs	r3, #1
 80027c6:	4618      	mov	r0, r3
 80027c8:	3708      	adds	r7, #8
 80027ca:	46bd      	mov	sp, r7
 80027cc:	bd80      	pop	{r7, pc}
 80027ce:	bf00      	nop
 80027d0:	20014ec4 	.word	0x20014ec4

080027d4 <setServoAngle>:
 80027d4:	b580      	push	{r7, lr}
 80027d6:	b084      	sub	sp, #16
 80027d8:	af00      	add	r7, sp, #0
 80027da:	4602      	mov	r2, r0
 80027dc:	460b      	mov	r3, r1
 80027de:	71fa      	strb	r2, [r7, #7]
 80027e0:	80bb      	strh	r3, [r7, #4]
 80027e2:	88bb      	ldrh	r3, [r7, #4]
 80027e4:	f5b3 7f96 	cmp.w	r3, #300	; 0x12c
 80027e8:	d901      	bls.n	80027ee <setServoAngle+0x1a>
 80027ea:	2300      	movs	r3, #0
 80027ec:	e02e      	b.n	800284c <setServoAngle+0x78>
 80027ee:	88bb      	ldrh	r3, [r7, #4]
 80027f0:	ee07 3a90 	vmov	s15, r3
 80027f4:	eeb8 7ae7 	vcvt.f32.s32	s14, s15
 80027f8:	eddf 7a16 	vldr	s15, [pc, #88]	; 8002854 <setServoAngle+0x80>
 80027fc:	ee67 7a27 	vmul.f32	s15, s14, s15
 8002800:	eefc 7ae7 	vcvt.u32.f32	s15, s15
 8002804:	ee17 3a90 	vmov	r3, s15
 8002808:	81fb      	strh	r3, [r7, #14]
 800280a:	89fb      	ldrh	r3, [r7, #14]
 800280c:	0a1b      	lsrs	r3, r3, #8
 800280e:	b29b      	uxth	r3, r3
 8002810:	737b      	strb	r3, [r7, #13]
 8002812:	89fb      	ldrh	r3, [r7, #14]
 8002814:	733b      	strb	r3, [r7, #12]
 8002816:	231e      	movs	r3, #30
 8002818:	723b      	strb	r3, [r7, #8]
 800281a:	7b3b      	ldrb	r3, [r7, #12]
 800281c:	727b      	strb	r3, [r7, #9]
 800281e:	7b7b      	ldrb	r3, [r7, #13]
 8002820:	72bb      	strb	r3, [r7, #10]
 8002822:	79fa      	ldrb	r2, [r7, #7]
 8002824:	f107 0308 	add.w	r3, r7, #8
 8002828:	4610      	mov	r0, r2
 800282a:	2103      	movs	r1, #3
 800282c:	2203      	movs	r2, #3
 800282e:	f7ff fed1 	bl	80025d4 <sendServoCommand>
 8002832:	79fb      	ldrb	r3, [r7, #7]
 8002834:	4618      	mov	r0, r3
 8002836:	f7ff ffa9 	bl	800278c <getAndCheckResponse>
 800283a:	4603      	mov	r3, r0
 800283c:	f083 0301 	eor.w	r3, r3, #1
 8002840:	b2db      	uxtb	r3, r3
 8002842:	2b00      	cmp	r3, #0
 8002844:	d001      	beq.n	800284a <setServoAngle+0x76>
 8002846:	2300      	movs	r3, #0
 8002848:	e000      	b.n	800284c <setServoAngle+0x78>
 800284a:	2301      	movs	r3, #1
 800284c:	4618      	mov	r0, r3
 800284e:	3710      	adds	r7, #16
 8002850:	46bd      	mov	sp, r7
 8002852:	bd80      	pop	{r7, pc}
 8002854:	405a3d71 	.word	0x405a3d71

08002858 <getServoAngle>:
 8002858:	b580      	push	{r7, lr}
 800285a:	b084      	sub	sp, #16
 800285c:	af00      	add	r7, sp, #0
 800285e:	4603      	mov	r3, r0
 8002860:	6039      	str	r1, [r7, #0]
 8002862:	71fb      	strb	r3, [r7, #7]
 8002864:	4b1f      	ldr	r3, [pc, #124]	; (80028e4 <getServoAngle+0x8c>)
 8002866:	f107 010c 	add.w	r1, r7, #12
 800286a:	461a      	mov	r2, r3
 800286c:	2302      	movs	r3, #2
 800286e:	4608      	mov	r0, r1
 8002870:	4611      	mov	r1, r2
 8002872:	461a      	mov	r2, r3
 8002874:	f004 fa9a 	bl	8006dac <memcpy>
 8002878:	79fa      	ldrb	r2, [r7, #7]
 800287a:	f107 030c 	add.w	r3, r7, #12
 800287e:	4610      	mov	r0, r2
 8002880:	2102      	movs	r1, #2
 8002882:	2202      	movs	r2, #2
 8002884:	f7ff fea6 	bl	80025d4 <sendServoCommand>
 8002888:	79fb      	ldrb	r3, [r7, #7]
 800288a:	4618      	mov	r0, r3
 800288c:	f7ff ff7e 	bl	800278c <getAndCheckResponse>
 8002890:	4603      	mov	r3, r0
 8002892:	f083 0301 	eor.w	r3, r3, #1
 8002896:	b2db      	uxtb	r3, r3
 8002898:	2b00      	cmp	r3, #0
 800289a:	d001      	beq.n	80028a0 <getServoAngle+0x48>
 800289c:	2300      	movs	r3, #0
 800289e:	e01c      	b.n	80028da <getServoAngle+0x82>
 80028a0:	4b11      	ldr	r3, [pc, #68]	; (80028e8 <getServoAngle+0x90>)
 80028a2:	791b      	ldrb	r3, [r3, #4]
 80028a4:	81fb      	strh	r3, [r7, #14]
 80028a6:	89fb      	ldrh	r3, [r7, #14]
 80028a8:	021b      	lsls	r3, r3, #8
 80028aa:	81fb      	strh	r3, [r7, #14]
 80028ac:	4b0e      	ldr	r3, [pc, #56]	; (80028e8 <getServoAngle+0x90>)
 80028ae:	78db      	ldrb	r3, [r3, #3]
 80028b0:	461a      	mov	r2, r3
 80028b2:	89fb      	ldrh	r3, [r7, #14]
 80028b4:	4313      	orrs	r3, r2
 80028b6:	81fb      	strh	r3, [r7, #14]
 80028b8:	89fb      	ldrh	r3, [r7, #14]
 80028ba:	ee07 3a90 	vmov	s15, r3
 80028be:	eeb8 7a67 	vcvt.f32.u32	s14, s15
 80028c2:	eddf 7a0a 	vldr	s15, [pc, #40]	; 80028ec <getServoAngle+0x94>
 80028c6:	ee27 7a27 	vmul.f32	s14, s14, s15
 80028ca:	eddf 7a09 	vldr	s15, [pc, #36]	; 80028f0 <getServoAngle+0x98>
 80028ce:	eec7 7a27 	vdiv.f32	s15, s14, s15
 80028d2:	683b      	ldr	r3, [r7, #0]
 80028d4:	edc3 7a00 	vstr	s15, [r3]
 80028d8:	2301      	movs	r3, #1
 80028da:	4618      	mov	r0, r3
 80028dc:	3710      	adds	r7, #16
 80028de:	46bd      	mov	sp, r7
 80028e0:	bd80      	pop	{r7, pc}
 80028e2:	bf00      	nop
 80028e4:	080094fc 	.word	0x080094fc
 80028e8:	20014ec4 	.word	0x20014ec4
 80028ec:	43960000 	.word	0x43960000
 80028f0:	447fc000 	.word	0x447fc000

080028f4 <sendServoByte>:
 80028f4:	b580      	push	{r7, lr}
 80028f6:	b082      	sub	sp, #8
 80028f8:	af00      	add	r7, sp, #0
 80028fa:	4603      	mov	r3, r0
 80028fc:	71fb      	strb	r3, [r7, #7]
 80028fe:	4809      	ldr	r0, [pc, #36]	; (8002924 <sendServoByte+0x30>)
 8002900:	210c      	movs	r1, #12
 8002902:	2200      	movs	r2, #0
 8002904:	f7fe fc84 	bl	8001210 <gpioPinSetLevel>
 8002908:	79fb      	ldrb	r3, [r7, #7]
 800290a:	4807      	ldr	r0, [pc, #28]	; (8002928 <sendServoByte+0x34>)
 800290c:	4619      	mov	r1, r3
 800290e:	f7ff f9d5 	bl	8001cbc <usartPutCharNoEcho>
 8002912:	4804      	ldr	r0, [pc, #16]	; (8002924 <sendServoByte+0x30>)
 8002914:	210c      	movs	r1, #12
 8002916:	2201      	movs	r2, #1
 8002918:	f7fe fc7a 	bl	8001210 <gpioPinSetLevel>
 800291c:	3708      	adds	r7, #8
 800291e:	46bd      	mov	sp, r7
 8002920:	bd80      	pop	{r7, pc}
 8002922:	bf00      	nop
 8002924:	40020400 	.word	0x40020400
 8002928:	40004c00 	.word	0x40004c00

0800292c <clearServoReceiveBuffer>:
 800292c:	b480      	push	{r7}
 800292e:	af00      	add	r7, sp, #0
 8002930:	4b03      	ldr	r3, [pc, #12]	; (8002940 <clearServoReceiveBuffer+0x14>)
 8002932:	681a      	ldr	r2, [r3, #0]
 8002934:	4b03      	ldr	r3, [pc, #12]	; (8002944 <clearServoReceiveBuffer+0x18>)
 8002936:	601a      	str	r2, [r3, #0]
 8002938:	46bd      	mov	sp, r7
 800293a:	f85d 7b04 	ldr.w	r7, [sp], #4
 800293e:	4770      	bx	lr
 8002940:	200000e8 	.word	0x200000e8
 8002944:	200000e4 	.word	0x200000e4

08002948 <getServoBytesAvailable>:
 8002948:	b480      	push	{r7}
 800294a:	b083      	sub	sp, #12
 800294c:	af00      	add	r7, sp, #0
 800294e:	4b0c      	ldr	r3, [pc, #48]	; (8002980 <getServoBytesAvailable+0x38>)
 8002950:	681b      	ldr	r3, [r3, #0]
 8002952:	607b      	str	r3, [r7, #4]
 8002954:	4b0b      	ldr	r3, [pc, #44]	; (8002984 <getServoBytesAvailable+0x3c>)
 8002956:	681b      	ldr	r3, [r3, #0]
 8002958:	603b      	str	r3, [r7, #0]
 800295a:	683a      	ldr	r2, [r7, #0]
 800295c:	687b      	ldr	r3, [r7, #4]
 800295e:	429a      	cmp	r2, r3
 8002960:	d303      	bcc.n	800296a <getServoBytesAvailable+0x22>
 8002962:	683a      	ldr	r2, [r7, #0]
 8002964:	687b      	ldr	r3, [r7, #4]
 8002966:	1ad3      	subs	r3, r2, r3
 8002968:	e003      	b.n	8002972 <getServoBytesAvailable+0x2a>
 800296a:	683a      	ldr	r2, [r7, #0]
 800296c:	687b      	ldr	r3, [r7, #4]
 800296e:	1ad3      	subs	r3, r2, r3
 8002970:	3320      	adds	r3, #32
 8002972:	4618      	mov	r0, r3
 8002974:	370c      	adds	r7, #12
 8002976:	46bd      	mov	sp, r7
 8002978:	f85d 7b04 	ldr.w	r7, [sp], #4
 800297c:	4770      	bx	lr
 800297e:	bf00      	nop
 8002980:	200000e4 	.word	0x200000e4
 8002984:	200000e8 	.word	0x200000e8

08002988 <getServoByte>:
 8002988:	b480      	push	{r7}
 800298a:	af00      	add	r7, sp, #0
 800298c:	4b0a      	ldr	r3, [pc, #40]	; (80029b8 <getServoByte+0x30>)
 800298e:	681b      	ldr	r3, [r3, #0]
 8002990:	1c5a      	adds	r2, r3, #1
 8002992:	4b09      	ldr	r3, [pc, #36]	; (80029b8 <getServoByte+0x30>)
 8002994:	601a      	str	r2, [r3, #0]
 8002996:	4b08      	ldr	r3, [pc, #32]	; (80029b8 <getServoByte+0x30>)
 8002998:	681a      	ldr	r2, [r3, #0]
 800299a:	4b08      	ldr	r3, [pc, #32]	; (80029bc <getServoByte+0x34>)
 800299c:	429a      	cmp	r2, r3
 800299e:	d302      	bcc.n	80029a6 <getServoByte+0x1e>
 80029a0:	4b05      	ldr	r3, [pc, #20]	; (80029b8 <getServoByte+0x30>)
 80029a2:	4a07      	ldr	r2, [pc, #28]	; (80029c0 <getServoByte+0x38>)
 80029a4:	601a      	str	r2, [r3, #0]
 80029a6:	4b04      	ldr	r3, [pc, #16]	; (80029b8 <getServoByte+0x30>)
 80029a8:	681b      	ldr	r3, [r3, #0]
 80029aa:	781b      	ldrb	r3, [r3, #0]
 80029ac:	b2db      	uxtb	r3, r3
 80029ae:	4618      	mov	r0, r3
 80029b0:	46bd      	mov	sp, r7
 80029b2:	f85d 7b04 	ldr.w	r7, [sp], #4
 80029b6:	4770      	bx	lr
 80029b8:	200000e4 	.word	0x200000e4
 80029bc:	20014f04 	.word	0x20014f04
 80029c0:	20014ee4 	.word	0x20014ee4

080029c4 <UART4_IRQHandler>:
 80029c4:	b480      	push	{r7}
 80029c6:	b083      	sub	sp, #12
 80029c8:	af00      	add	r7, sp, #0
 80029ca:	4b13      	ldr	r3, [pc, #76]	; (8002a18 <UART4_IRQHandler+0x54>)
 80029cc:	681b      	ldr	r3, [r3, #0]
 80029ce:	f003 0320 	and.w	r3, r3, #32
 80029d2:	2b00      	cmp	r3, #0
 80029d4:	d01a      	beq.n	8002a0c <UART4_IRQHandler+0x48>
 80029d6:	4b10      	ldr	r3, [pc, #64]	; (8002a18 <UART4_IRQHandler+0x54>)
 80029d8:	4a0f      	ldr	r2, [pc, #60]	; (8002a18 <UART4_IRQHandler+0x54>)
 80029da:	6812      	ldr	r2, [r2, #0]
 80029dc:	f022 0220 	bic.w	r2, r2, #32
 80029e0:	601a      	str	r2, [r3, #0]
 80029e2:	4b0d      	ldr	r3, [pc, #52]	; (8002a18 <UART4_IRQHandler+0x54>)
 80029e4:	685b      	ldr	r3, [r3, #4]
 80029e6:	71fb      	strb	r3, [r7, #7]
 80029e8:	4b0c      	ldr	r3, [pc, #48]	; (8002a1c <UART4_IRQHandler+0x58>)
 80029ea:	681b      	ldr	r3, [r3, #0]
 80029ec:	1c5a      	adds	r2, r3, #1
 80029ee:	4b0b      	ldr	r3, [pc, #44]	; (8002a1c <UART4_IRQHandler+0x58>)
 80029f0:	601a      	str	r2, [r3, #0]
 80029f2:	4b0a      	ldr	r3, [pc, #40]	; (8002a1c <UART4_IRQHandler+0x58>)
 80029f4:	681a      	ldr	r2, [r3, #0]
 80029f6:	4b0a      	ldr	r3, [pc, #40]	; (8002a20 <UART4_IRQHandler+0x5c>)
 80029f8:	429a      	cmp	r2, r3
 80029fa:	d302      	bcc.n	8002a02 <UART4_IRQHandler+0x3e>
 80029fc:	4b07      	ldr	r3, [pc, #28]	; (8002a1c <UART4_IRQHandler+0x58>)
 80029fe:	4a09      	ldr	r2, [pc, #36]	; (8002a24 <UART4_IRQHandler+0x60>)
 8002a00:	601a      	str	r2, [r3, #0]
 8002a02:	4b06      	ldr	r3, [pc, #24]	; (8002a1c <UART4_IRQHandler+0x58>)
 8002a04:	681b      	ldr	r3, [r3, #0]
 8002a06:	79fa      	ldrb	r2, [r7, #7]
 8002a08:	701a      	strb	r2, [r3, #0]
 8002a0a:	bf00      	nop
 8002a0c:	370c      	adds	r7, #12
 8002a0e:	46bd      	mov	sp, r7
 8002a10:	f85d 7b04 	ldr.w	r7, [sp], #4
 8002a14:	4770      	bx	lr
 8002a16:	bf00      	nop
 8002a18:	40004c00 	.word	0x40004c00
 8002a1c:	200000e8 	.word	0x200000e8
 8002a20:	20014f04 	.word	0x20014f04
 8002a24:	20014ee4 	.word	0x20014ee4

08002a28 <NVIC_EnableIRQ>:
 8002a28:	b480      	push	{r7}
 8002a2a:	b083      	sub	sp, #12
 8002a2c:	af00      	add	r7, sp, #0
 8002a2e:	4603      	mov	r3, r0
 8002a30:	71fb      	strb	r3, [r7, #7]
 8002a32:	4b08      	ldr	r3, [pc, #32]	; (8002a54 <NVIC_EnableIRQ+0x2c>)
 8002a34:	f997 2007 	ldrsb.w	r2, [r7, #7]
 8002a38:	0952      	lsrs	r2, r2, #5
 8002a3a:	79f9      	ldrb	r1, [r7, #7]
 8002a3c:	f001 011f 	and.w	r1, r1, #31
 8002a40:	2001      	movs	r0, #1
 8002a42:	fa00 f101 	lsl.w	r1, r0, r1
 8002a46:	f843 1022 	str.w	r1, [r3, r2, lsl #2]
 8002a4a:	370c      	adds	r7, #12
 8002a4c:	46bd      	mov	sp, r7
 8002a4e:	f85d 7b04 	ldr.w	r7, [sp], #4
 8002a52:	4770      	bx	lr
 8002a54:	e000e100 	.word	0xe000e100

08002a58 <NVIC_DisableIRQ>:
 8002a58:	b480      	push	{r7}
 8002a5a:	b083      	sub	sp, #12
 8002a5c:	af00      	add	r7, sp, #0
 8002a5e:	4603      	mov	r3, r0
 8002a60:	71fb      	strb	r3, [r7, #7]
 8002a62:	4b09      	ldr	r3, [pc, #36]	; (8002a88 <NVIC_DisableIRQ+0x30>)
 8002a64:	f997 2007 	ldrsb.w	r2, [r7, #7]
 8002a68:	0952      	lsrs	r2, r2, #5
 8002a6a:	79f9      	ldrb	r1, [r7, #7]
 8002a6c:	f001 011f 	and.w	r1, r1, #31
 8002a70:	2001      	movs	r0, #1
 8002a72:	fa00 f101 	lsl.w	r1, r0, r1
 8002a76:	3220      	adds	r2, #32
 8002a78:	f843 1022 	str.w	r1, [r3, r2, lsl #2]
 8002a7c:	370c      	adds	r7, #12
 8002a7e:	46bd      	mov	sp, r7
 8002a80:	f85d 7b04 	ldr.w	r7, [sp], #4
 8002a84:	4770      	bx	lr
 8002a86:	bf00      	nop
 8002a88:	e000e100 	.word	0xe000e100

08002a8c <TIM6_DAC_IRQHandler>:
 8002a8c:	b580      	push	{r7, lr}
 8002a8e:	af00      	add	r7, sp, #0
 8002a90:	4b19      	ldr	r3, [pc, #100]	; (8002af8 <TIM6_DAC_IRQHandler+0x6c>)
 8002a92:	691b      	ldr	r3, [r3, #16]
 8002a94:	f003 0301 	and.w	r3, r3, #1
 8002a98:	2b00      	cmp	r3, #0
 8002a9a:	d02b      	beq.n	8002af4 <TIM6_DAC_IRQHandler+0x68>
 8002a9c:	4816      	ldr	r0, [pc, #88]	; (8002af8 <TIM6_DAC_IRQHandler+0x6c>)
 8002a9e:	2101      	movs	r1, #1
 8002aa0:	f7ff f8f8 	bl	8001c94 <timClearStatusRegisterFlag>
 8002aa4:	2032      	movs	r0, #50	; 0x32
 8002aa6:	f7ff ffd7 	bl	8002a58 <NVIC_DisableIRQ>
 8002aaa:	202d      	movs	r0, #45	; 0x2d
 8002aac:	f7ff ffd4 	bl	8002a58 <NVIC_DisableIRQ>
 8002ab0:	f000 fc3a 	bl	8003328 <readEnc>
 8002ab4:	f000 fbbe 	bl	8003234 <calcGlobSpeedAndCoord>
 8002ab8:	f001 f812 	bl	8003ae0 <updateRobotStatus>
 8002abc:	4b0f      	ldr	r3, [pc, #60]	; (8002afc <TIM6_DAC_IRQHandler+0x70>)
 8002abe:	789b      	ldrb	r3, [r3, #2]
 8002ac0:	2b00      	cmp	r3, #0
 8002ac2:	d003      	beq.n	8002acc <TIM6_DAC_IRQHandler+0x40>
 8002ac4:	f000 ff02 	bl	80038cc <checkIfPositionIsReached>
 8002ac8:	f000 fe28 	bl	800371c <speedRecalculation>
 8002acc:	4b0b      	ldr	r3, [pc, #44]	; (8002afc <TIM6_DAC_IRQHandler+0x70>)
 8002ace:	791b      	ldrb	r3, [r3, #4]
 8002ad0:	2b00      	cmp	r3, #0
 8002ad2:	d001      	beq.n	8002ad8 <TIM6_DAC_IRQHandler+0x4c>
 8002ad4:	f7ff faa6 	bl	8002024 <checkCollisionAvoidance>
 8002ad8:	4b08      	ldr	r3, [pc, #32]	; (8002afc <TIM6_DAC_IRQHandler+0x70>)
 8002ada:	785b      	ldrb	r3, [r3, #1]
 8002adc:	2b00      	cmp	r3, #0
 8002ade:	d003      	beq.n	8002ae8 <TIM6_DAC_IRQHandler+0x5c>
 8002ae0:	f000 fd08 	bl	80034f4 <calcForwardKin>
 8002ae4:	f000 fdfa 	bl	80036dc <setMotorSpeeds>
 8002ae8:	2032      	movs	r0, #50	; 0x32
 8002aea:	f7ff ff9d 	bl	8002a28 <NVIC_EnableIRQ>
 8002aee:	202d      	movs	r0, #45	; 0x2d
 8002af0:	f7ff ff9a 	bl	8002a28 <NVIC_EnableIRQ>
 8002af4:	bf00      	nop
 8002af6:	bd80      	pop	{r7, pc}
 8002af8:	40001000 	.word	0x40001000
 8002afc:	20014fd4 	.word	0x20014fd4

08002b00 <I2C2_ER_IRQHandler>:
 8002b00:	b480      	push	{r7}
 8002b02:	af00      	add	r7, sp, #0
 8002b04:	4b1a      	ldr	r3, [pc, #104]	; (8002b70 <I2C2_ER_IRQHandler+0x70>)
 8002b06:	695b      	ldr	r3, [r3, #20]
 8002b08:	f403 7300 	and.w	r3, r3, #512	; 0x200
 8002b0c:	2b00      	cmp	r3, #0
 8002b0e:	d009      	beq.n	8002b24 <I2C2_ER_IRQHandler+0x24>
 8002b10:	4b17      	ldr	r3, [pc, #92]	; (8002b70 <I2C2_ER_IRQHandler+0x70>)
 8002b12:	4a17      	ldr	r2, [pc, #92]	; (8002b70 <I2C2_ER_IRQHandler+0x70>)
 8002b14:	6952      	ldr	r2, [r2, #20]
 8002b16:	f422 7200 	bic.w	r2, r2, #512	; 0x200
 8002b1a:	615a      	str	r2, [r3, #20]
 8002b1c:	4b15      	ldr	r3, [pc, #84]	; (8002b74 <I2C2_ER_IRQHandler+0x74>)
 8002b1e:	2203      	movs	r2, #3
 8002b20:	711a      	strb	r2, [r3, #4]
 8002b22:	e020      	b.n	8002b66 <I2C2_ER_IRQHandler+0x66>
 8002b24:	4b12      	ldr	r3, [pc, #72]	; (8002b70 <I2C2_ER_IRQHandler+0x70>)
 8002b26:	695b      	ldr	r3, [r3, #20]
 8002b28:	f403 6380 	and.w	r3, r3, #1024	; 0x400
 8002b2c:	2b00      	cmp	r3, #0
 8002b2e:	d009      	beq.n	8002b44 <I2C2_ER_IRQHandler+0x44>
 8002b30:	4b0f      	ldr	r3, [pc, #60]	; (8002b70 <I2C2_ER_IRQHandler+0x70>)
 8002b32:	4a0f      	ldr	r2, [pc, #60]	; (8002b70 <I2C2_ER_IRQHandler+0x70>)
 8002b34:	6952      	ldr	r2, [r2, #20]
 8002b36:	f422 6280 	bic.w	r2, r2, #1024	; 0x400
 8002b3a:	615a      	str	r2, [r3, #20]
 8002b3c:	4b0d      	ldr	r3, [pc, #52]	; (8002b74 <I2C2_ER_IRQHandler+0x74>)
 8002b3e:	2201      	movs	r2, #1
 8002b40:	711a      	strb	r2, [r3, #4]
 8002b42:	e010      	b.n	8002b66 <I2C2_ER_IRQHandler+0x66>
 8002b44:	4b0a      	ldr	r3, [pc, #40]	; (8002b70 <I2C2_ER_IRQHandler+0x70>)
 8002b46:	695b      	ldr	r3, [r3, #20]
 8002b48:	f403 7380 	and.w	r3, r3, #256	; 0x100
 8002b4c:	2b00      	cmp	r3, #0
 8002b4e:	d009      	beq.n	8002b64 <I2C2_ER_IRQHandler+0x64>
 8002b50:	4b07      	ldr	r3, [pc, #28]	; (8002b70 <I2C2_ER_IRQHandler+0x70>)
 8002b52:	4a07      	ldr	r2, [pc, #28]	; (8002b70 <I2C2_ER_IRQHandler+0x70>)
 8002b54:	6952      	ldr	r2, [r2, #20]
 8002b56:	f422 7280 	bic.w	r2, r2, #256	; 0x100
 8002b5a:	615a      	str	r2, [r3, #20]
 8002b5c:	4b05      	ldr	r3, [pc, #20]	; (8002b74 <I2C2_ER_IRQHandler+0x74>)
 8002b5e:	2204      	movs	r2, #4
 8002b60:	711a      	strb	r2, [r3, #4]
 8002b62:	e000      	b.n	8002b66 <I2C2_ER_IRQHandler+0x66>
 8002b64:	bf00      	nop
 8002b66:	46bd      	mov	sp, r7
 8002b68:	f85d 7b04 	ldr.w	r7, [sp], #4
 8002b6c:	4770      	bx	lr
 8002b6e:	bf00      	nop
 8002b70:	40005800 	.word	0x40005800
 8002b74:	20014d90 	.word	0x20014d90

08002b78 <TIM7_IRQHandler>:
 8002b78:	b580      	push	{r7, lr}
 8002b7a:	af00      	add	r7, sp, #0
 8002b7c:	4b08      	ldr	r3, [pc, #32]	; (8002ba0 <TIM7_IRQHandler+0x28>)
 8002b7e:	691b      	ldr	r3, [r3, #16]
 8002b80:	f003 0301 	and.w	r3, r3, #1
 8002b84:	2b00      	cmp	r3, #0
 8002b86:	d008      	beq.n	8002b9a <TIM7_IRQHandler+0x22>
 8002b88:	4805      	ldr	r0, [pc, #20]	; (8002ba0 <TIM7_IRQHandler+0x28>)
 8002b8a:	2101      	movs	r1, #1
 8002b8c:	f7ff f882 	bl	8001c94 <timClearStatusRegisterFlag>
 8002b90:	4b04      	ldr	r3, [pc, #16]	; (8002ba4 <TIM7_IRQHandler+0x2c>)
 8002b92:	681b      	ldr	r3, [r3, #0]
 8002b94:	1c5a      	adds	r2, r3, #1
 8002b96:	4b03      	ldr	r3, [pc, #12]	; (8002ba4 <TIM7_IRQHandler+0x2c>)
 8002b98:	601a      	str	r2, [r3, #0]
 8002b9a:	bf00      	nop
 8002b9c:	bd80      	pop	{r7, pc}
 8002b9e:	bf00      	nop
 8002ba0:	40001400 	.word	0x40001400
 8002ba4:	20000240 	.word	0x20000240

08002ba8 <TIM8_TRG_COM_TIM14_IRQHandler>:
 8002ba8:	b580      	push	{r7, lr}
 8002baa:	b082      	sub	sp, #8
 8002bac:	af00      	add	r7, sp, #0
 8002bae:	4b12      	ldr	r3, [pc, #72]	; (8002bf8 <TIM8_TRG_COM_TIM14_IRQHandler+0x50>)
 8002bb0:	691b      	ldr	r3, [r3, #16]
 8002bb2:	f003 0301 	and.w	r3, r3, #1
 8002bb6:	2b00      	cmp	r3, #0
 8002bb8:	d019      	beq.n	8002bee <TIM8_TRG_COM_TIM14_IRQHandler+0x46>
 8002bba:	f000 f81f 	bl	8002bfc <getLocalTime>
 8002bbe:	6078      	str	r0, [r7, #4]
 8002bc0:	480d      	ldr	r0, [pc, #52]	; (8002bf8 <TIM8_TRG_COM_TIM14_IRQHandler+0x50>)
 8002bc2:	2101      	movs	r1, #1
 8002bc4:	f7ff f866 	bl	8001c94 <timClearStatusRegisterFlag>
 8002bc8:	f000 f818 	bl	8002bfc <getLocalTime>
 8002bcc:	4602      	mov	r2, r0
 8002bce:	f644 6320 	movw	r3, #20000	; 0x4e20
 8002bd2:	429a      	cmp	r2, r3
 8002bd4:	d908      	bls.n	8002be8 <TIM8_TRG_COM_TIM14_IRQHandler+0x40>
 8002bd6:	f000 f811 	bl	8002bfc <getLocalTime>
 8002bda:	6038      	str	r0, [r7, #0]
 8002bdc:	f7ff f8b6 	bl	8001d4c <readRangesGlobally>
 8002be0:	f7ff fb02 	bl	80021e8 <postprocessDataForCalibration>
 8002be4:	f7ff f95a 	bl	8001e9c <checkRangeFindersReinitFlags>
 8002be8:	4803      	ldr	r0, [pc, #12]	; (8002bf8 <TIM8_TRG_COM_TIM14_IRQHandler+0x50>)
 8002bea:	f7ff f82d 	bl	8001c48 <timEnable>
 8002bee:	bf00      	nop
 8002bf0:	3708      	adds	r7, #8
 8002bf2:	46bd      	mov	sp, r7
 8002bf4:	bd80      	pop	{r7, pc}
 8002bf6:	bf00      	nop
 8002bf8:	40002000 	.word	0x40002000

08002bfc <getLocalTime>:
 8002bfc:	b480      	push	{r7}
 8002bfe:	af00      	add	r7, sp, #0
 8002c00:	4b03      	ldr	r3, [pc, #12]	; (8002c10 <getLocalTime+0x14>)
 8002c02:	681b      	ldr	r3, [r3, #0]
 8002c04:	4618      	mov	r0, r3
 8002c06:	46bd      	mov	sp, r7
 8002c08:	f85d 7b04 	ldr.w	r7, [sp], #4
 8002c0c:	4770      	bx	lr
 8002c0e:	bf00      	nop
 8002c10:	20000240 	.word	0x20000240

08002c14 <getTimeDifference>:
 8002c14:	b580      	push	{r7, lr}
 8002c16:	b084      	sub	sp, #16
 8002c18:	af00      	add	r7, sp, #0
 8002c1a:	6078      	str	r0, [r7, #4]
 8002c1c:	2037      	movs	r0, #55	; 0x37
 8002c1e:	f7ff ff1b 	bl	8002a58 <NVIC_DisableIRQ>
 8002c22:	4b0d      	ldr	r3, [pc, #52]	; (8002c58 <getTimeDifference+0x44>)
 8002c24:	681a      	ldr	r2, [r3, #0]
 8002c26:	687b      	ldr	r3, [r7, #4]
 8002c28:	429a      	cmp	r2, r3
 8002c2a:	d305      	bcc.n	8002c38 <getTimeDifference+0x24>
 8002c2c:	4b0a      	ldr	r3, [pc, #40]	; (8002c58 <getTimeDifference+0x44>)
 8002c2e:	681a      	ldr	r2, [r3, #0]
 8002c30:	687b      	ldr	r3, [r7, #4]
 8002c32:	1ad3      	subs	r3, r2, r3
 8002c34:	60fb      	str	r3, [r7, #12]
 8002c36:	e007      	b.n	8002c48 <getTimeDifference+0x34>
 8002c38:	4b07      	ldr	r3, [pc, #28]	; (8002c58 <getTimeDifference+0x44>)
 8002c3a:	681a      	ldr	r2, [r3, #0]
 8002c3c:	687b      	ldr	r3, [r7, #4]
 8002c3e:	1ad3      	subs	r3, r2, r3
 8002c40:	f503 437f 	add.w	r3, r3, #65280	; 0xff00
 8002c44:	33ff      	adds	r3, #255	; 0xff
 8002c46:	60fb      	str	r3, [r7, #12]
 8002c48:	2037      	movs	r0, #55	; 0x37
 8002c4a:	f7ff feed 	bl	8002a28 <NVIC_EnableIRQ>
 8002c4e:	68fb      	ldr	r3, [r7, #12]
 8002c50:	4618      	mov	r0, r3
 8002c52:	3710      	adds	r7, #16
 8002c54:	46bd      	mov	sp, r7
 8002c56:	bd80      	pop	{r7, pc}
 8002c58:	20000240 	.word	0x20000240

08002c5c <checkTimeout>:
 8002c5c:	b580      	push	{r7, lr}
 8002c5e:	b084      	sub	sp, #16
 8002c60:	af00      	add	r7, sp, #0
 8002c62:	6078      	str	r0, [r7, #4]
 8002c64:	6039      	str	r1, [r7, #0]
 8002c66:	6878      	ldr	r0, [r7, #4]
 8002c68:	f7ff ffd4 	bl	8002c14 <getTimeDifference>
 8002c6c:	60f8      	str	r0, [r7, #12]
 8002c6e:	68fa      	ldr	r2, [r7, #12]
 8002c70:	683b      	ldr	r3, [r7, #0]
 8002c72:	429a      	cmp	r2, r3
 8002c74:	d301      	bcc.n	8002c7a <checkTimeout+0x1e>
 8002c76:	2301      	movs	r3, #1
 8002c78:	e000      	b.n	8002c7c <checkTimeout+0x20>
 8002c7a:	2300      	movs	r3, #0
 8002c7c:	4618      	mov	r0, r3
 8002c7e:	3710      	adds	r7, #16
 8002c80:	46bd      	mov	sp, r7
 8002c82:	bd80      	pop	{r7, pc}

08002c84 <delayInTenthOfMs>:
 8002c84:	b580      	push	{r7, lr}
 8002c86:	b084      	sub	sp, #16
 8002c88:	af00      	add	r7, sp, #0
 8002c8a:	4603      	mov	r3, r0
 8002c8c:	80fb      	strh	r3, [r7, #6]
 8002c8e:	f7ff ffb5 	bl	8002bfc <getLocalTime>
 8002c92:	60f8      	str	r0, [r7, #12]
 8002c94:	bf00      	nop
 8002c96:	88fb      	ldrh	r3, [r7, #6]
 8002c98:	68f8      	ldr	r0, [r7, #12]
 8002c9a:	4619      	mov	r1, r3
 8002c9c:	f7ff ffde 	bl	8002c5c <checkTimeout>
 8002ca0:	4603      	mov	r3, r0
 8002ca2:	2b00      	cmp	r3, #0
 8002ca4:	d0f7      	beq.n	8002c96 <delayInTenthOfMs+0x12>
 8002ca6:	bf00      	nop
 8002ca8:	3710      	adds	r7, #16
 8002caa:	46bd      	mov	sp, r7
 8002cac:	bd80      	pop	{r7, pc}
 8002cae:	bf00      	nop

08002cb0 <TIM5_IRQHandler>:
 8002cb0:	b580      	push	{r7, lr}
 8002cb2:	af00      	add	r7, sp, #0
 8002cb4:	4b10      	ldr	r3, [pc, #64]	; (8002cf8 <TIM5_IRQHandler+0x48>)
 8002cb6:	691b      	ldr	r3, [r3, #16]
 8002cb8:	f003 0301 	and.w	r3, r3, #1
 8002cbc:	2b00      	cmp	r3, #0
 8002cbe:	d018      	beq.n	8002cf2 <TIM5_IRQHandler+0x42>
 8002cc0:	480d      	ldr	r0, [pc, #52]	; (8002cf8 <TIM5_IRQHandler+0x48>)
 8002cc2:	2101      	movs	r1, #1
 8002cc4:	f7fe ffe6 	bl	8001c94 <timClearStatusRegisterFlag>
 8002cc8:	2000      	movs	r0, #0
 8002cca:	490c      	ldr	r1, [pc, #48]	; (8002cfc <TIM5_IRQHandler+0x4c>)
 8002ccc:	f000 f8b8 	bl	8002e40 <execManipTasks>
 8002cd0:	2001      	movs	r0, #1
 8002cd2:	490b      	ldr	r1, [pc, #44]	; (8002d00 <TIM5_IRQHandler+0x50>)
 8002cd4:	f000 f8b4 	bl	8002e40 <execManipTasks>
 8002cd8:	2002      	movs	r0, #2
 8002cda:	490a      	ldr	r1, [pc, #40]	; (8002d04 <TIM5_IRQHandler+0x54>)
 8002cdc:	f000 f8b0 	bl	8002e40 <execManipTasks>
 8002ce0:	4809      	ldr	r0, [pc, #36]	; (8002d08 <TIM5_IRQHandler+0x58>)
 8002ce2:	f000 f855 	bl	8002d90 <checkPosServo>
 8002ce6:	4809      	ldr	r0, [pc, #36]	; (8002d0c <TIM5_IRQHandler+0x5c>)
 8002ce8:	f000 f852 	bl	8002d90 <checkPosServo>
 8002cec:	4808      	ldr	r0, [pc, #32]	; (8002d10 <TIM5_IRQHandler+0x60>)
 8002cee:	f000 f84f 	bl	8002d90 <checkPosServo>
 8002cf2:	bf00      	nop
 8002cf4:	bd80      	pop	{r7, pc}
 8002cf6:	bf00      	nop
 8002cf8:	40000c00 	.word	0x40000c00
 8002cfc:	20014f40 	.word	0x20014f40
 8002d00:	20014f68 	.word	0x20014f68
 8002d04:	20014f90 	.word	0x20014f90
 8002d08:	20014f04 	.word	0x20014f04
 8002d0c:	20014f18 	.word	0x20014f18
 8002d10:	20014f2c 	.word	0x20014f2c

08002d14 <setServoAngleWithRetries>:
 8002d14:	b580      	push	{r7, lr}
 8002d16:	b084      	sub	sp, #16
 8002d18:	af00      	add	r7, sp, #0
 8002d1a:	4602      	mov	r2, r0
 8002d1c:	460b      	mov	r3, r1
 8002d1e:	71fa      	strb	r2, [r7, #7]
 8002d20:	80bb      	strh	r3, [r7, #4]
 8002d22:	2300      	movs	r3, #0
 8002d24:	73fb      	strb	r3, [r7, #15]
 8002d26:	e00d      	b.n	8002d44 <setServoAngleWithRetries+0x30>
 8002d28:	79fa      	ldrb	r2, [r7, #7]
 8002d2a:	88bb      	ldrh	r3, [r7, #4]
 8002d2c:	4610      	mov	r0, r2
 8002d2e:	4619      	mov	r1, r3
 8002d30:	f7ff fd50 	bl	80027d4 <setServoAngle>
 8002d34:	4603      	mov	r3, r0
 8002d36:	2b00      	cmp	r3, #0
 8002d38:	d001      	beq.n	8002d3e <setServoAngleWithRetries+0x2a>
 8002d3a:	2301      	movs	r3, #1
 8002d3c:	e006      	b.n	8002d4c <setServoAngleWithRetries+0x38>
 8002d3e:	7bfb      	ldrb	r3, [r7, #15]
 8002d40:	3301      	adds	r3, #1
 8002d42:	73fb      	strb	r3, [r7, #15]
 8002d44:	7bfb      	ldrb	r3, [r7, #15]
 8002d46:	2b09      	cmp	r3, #9
 8002d48:	d9ee      	bls.n	8002d28 <setServoAngleWithRetries+0x14>
 8002d4a:	2300      	movs	r3, #0
 8002d4c:	4618      	mov	r0, r3
 8002d4e:	3710      	adds	r7, #16
 8002d50:	46bd      	mov	sp, r7
 8002d52:	bd80      	pop	{r7, pc}

08002d54 <getServoAngleWithRetries>:
 8002d54:	b580      	push	{r7, lr}
 8002d56:	b084      	sub	sp, #16
 8002d58:	af00      	add	r7, sp, #0
 8002d5a:	4603      	mov	r3, r0
 8002d5c:	6039      	str	r1, [r7, #0]
 8002d5e:	71fb      	strb	r3, [r7, #7]
 8002d60:	2300      	movs	r3, #0
 8002d62:	73fb      	strb	r3, [r7, #15]
 8002d64:	e00c      	b.n	8002d80 <getServoAngleWithRetries+0x2c>
 8002d66:	79fb      	ldrb	r3, [r7, #7]
 8002d68:	4618      	mov	r0, r3
 8002d6a:	6839      	ldr	r1, [r7, #0]
 8002d6c:	f7ff fd74 	bl	8002858 <getServoAngle>
 8002d70:	4603      	mov	r3, r0
 8002d72:	2b00      	cmp	r3, #0
 8002d74:	d001      	beq.n	8002d7a <getServoAngleWithRetries+0x26>
 8002d76:	2301      	movs	r3, #1
 8002d78:	e006      	b.n	8002d88 <getServoAngleWithRetries+0x34>
 8002d7a:	7bfb      	ldrb	r3, [r7, #15]
 8002d7c:	3301      	adds	r3, #1
 8002d7e:	73fb      	strb	r3, [r7, #15]
 8002d80:	7bfb      	ldrb	r3, [r7, #15]
 8002d82:	2b09      	cmp	r3, #9
 8002d84:	d9ef      	bls.n	8002d66 <getServoAngleWithRetries+0x12>
 8002d86:	2300      	movs	r3, #0
 8002d88:	4618      	mov	r0, r3
 8002d8a:	3710      	adds	r7, #16
 8002d8c:	46bd      	mov	sp, r7
 8002d8e:	bd80      	pop	{r7, pc}

08002d90 <checkPosServo>:
 8002d90:	b580      	push	{r7, lr}
 8002d92:	b084      	sub	sp, #16
 8002d94:	af00      	add	r7, sp, #0
 8002d96:	6078      	str	r0, [r7, #4]
 8002d98:	687b      	ldr	r3, [r7, #4]
 8002d9a:	7c1b      	ldrb	r3, [r3, #16]
 8002d9c:	2b01      	cmp	r3, #1
 8002d9e:	d132      	bne.n	8002e06 <checkPosServo+0x76>
 8002da0:	687b      	ldr	r3, [r7, #4]
 8002da2:	781a      	ldrb	r2, [r3, #0]
 8002da4:	f107 030c 	add.w	r3, r7, #12
 8002da8:	4610      	mov	r0, r2
 8002daa:	4619      	mov	r1, r3
 8002dac:	f7ff ffd2 	bl	8002d54 <getServoAngleWithRetries>
 8002db0:	4603      	mov	r3, r0
 8002db2:	2b00      	cmp	r3, #0
 8002db4:	d103      	bne.n	8002dbe <checkPosServo+0x2e>
 8002db6:	687b      	ldr	r3, [r7, #4]
 8002db8:	2203      	movs	r2, #3
 8002dba:	741a      	strb	r2, [r3, #16]
 8002dbc:	e024      	b.n	8002e08 <checkPosServo+0x78>
 8002dbe:	687b      	ldr	r3, [r7, #4]
 8002dc0:	ed93 7a02 	vldr	s14, [r3, #8]
 8002dc4:	edd7 7a03 	vldr	s15, [r7, #12]
 8002dc8:	ee77 7a67 	vsub.f32	s15, s14, s15
 8002dcc:	eeb0 7ae7 	vabs.f32	s14, s15
 8002dd0:	eef2 7a04 	vmov.f32	s15, #36	; 0x24
 8002dd4:	eeb4 7ae7 	vcmpe.f32	s14, s15
 8002dd8:	eef1 fa10 	vmrs	APSR_nzcv, fpscr
 8002ddc:	d503      	bpl.n	8002de6 <checkPosServo+0x56>
 8002dde:	687b      	ldr	r3, [r7, #4]
 8002de0:	2202      	movs	r2, #2
 8002de2:	741a      	strb	r2, [r3, #16]
 8002de4:	e010      	b.n	8002e08 <checkPosServo+0x78>
 8002de6:	687b      	ldr	r3, [r7, #4]
 8002de8:	685b      	ldr	r3, [r3, #4]
 8002dea:	4618      	mov	r0, r3
 8002dec:	f244 6150 	movw	r1, #18000	; 0x4650
 8002df0:	f7ff ff34 	bl	8002c5c <checkTimeout>
 8002df4:	4603      	mov	r3, r0
 8002df6:	2b00      	cmp	r3, #0
 8002df8:	d004      	beq.n	8002e04 <checkPosServo+0x74>
 8002dfa:	687b      	ldr	r3, [r7, #4]
 8002dfc:	2204      	movs	r2, #4
 8002dfe:	741a      	strb	r2, [r3, #16]
 8002e00:	bf00      	nop
 8002e02:	e001      	b.n	8002e08 <checkPosServo+0x78>
 8002e04:	bf00      	nop
 8002e06:	bf00      	nop
 8002e08:	3710      	adds	r7, #16
 8002e0a:	46bd      	mov	sp, r7
 8002e0c:	bd80      	pop	{r7, pc}
 8002e0e:	bf00      	nop

08002e10 <resetChecker>:
 8002e10:	b480      	push	{r7}
 8002e12:	b083      	sub	sp, #12
 8002e14:	af00      	add	r7, sp, #0
 8002e16:	6078      	str	r0, [r7, #4]
 8002e18:	687b      	ldr	r3, [r7, #4]
 8002e1a:	2200      	movs	r2, #0
 8002e1c:	605a      	str	r2, [r3, #4]
 8002e1e:	687b      	ldr	r3, [r7, #4]
 8002e20:	2200      	movs	r2, #0
 8002e22:	701a      	strb	r2, [r3, #0]
 8002e24:	687b      	ldr	r3, [r7, #4]
 8002e26:	f04f 0200 	mov.w	r2, #0
 8002e2a:	609a      	str	r2, [r3, #8]
 8002e2c:	687b      	ldr	r3, [r7, #4]
 8002e2e:	2200      	movs	r2, #0
 8002e30:	741a      	strb	r2, [r3, #16]
 8002e32:	bf00      	nop
 8002e34:	370c      	adds	r7, #12
 8002e36:	46bd      	mov	sp, r7
 8002e38:	f85d 7b04 	ldr.w	r7, [sp], #4
 8002e3c:	4770      	bx	lr
 8002e3e:	bf00      	nop

08002e40 <execManipTasks>:
 8002e40:	b580      	push	{r7, lr}
 8002e42:	b084      	sub	sp, #16
 8002e44:	af00      	add	r7, sp, #0
 8002e46:	4603      	mov	r3, r0
 8002e48:	6039      	str	r1, [r7, #0]
 8002e4a:	71fb      	strb	r3, [r7, #7]
 8002e4c:	683b      	ldr	r3, [r7, #0]
 8002e4e:	f893 3024 	ldrb.w	r3, [r3, #36]	; 0x24
 8002e52:	2b01      	cmp	r3, #1
 8002e54:	d175      	bne.n	8002f42 <execManipTasks+0x102>
 8002e56:	79fa      	ldrb	r2, [r7, #7]
 8002e58:	493c      	ldr	r1, [pc, #240]	; (8002f4c <execManipTasks+0x10c>)
 8002e5a:	4613      	mov	r3, r2
 8002e5c:	009b      	lsls	r3, r3, #2
 8002e5e:	4413      	add	r3, r2
 8002e60:	009b      	lsls	r3, r3, #2
 8002e62:	440b      	add	r3, r1
 8002e64:	3310      	adds	r3, #16
 8002e66:	781b      	ldrb	r3, [r3, #0]
 8002e68:	73fb      	strb	r3, [r7, #15]
 8002e6a:	7bfb      	ldrb	r3, [r7, #15]
 8002e6c:	2b05      	cmp	r3, #5
 8002e6e:	d869      	bhi.n	8002f44 <execManipTasks+0x104>
 8002e70:	a201      	add	r2, pc, #4	; (adr r2, 8002e78 <execManipTasks+0x38>)
 8002e72:	f852 f023 	ldr.w	pc, [r2, r3, lsl #2]
 8002e76:	bf00      	nop
 8002e78:	08002e91 	.word	0x08002e91
 8002e7c:	08002ea3 	.word	0x08002ea3
 8002e80:	08002eab 	.word	0x08002eab
 8002e84:	08002ee9 	.word	0x08002ee9
 8002e88:	08002f07 	.word	0x08002f07
 8002e8c:	08002f25 	.word	0x08002f25
 8002e90:	79fb      	ldrb	r3, [r7, #7]
 8002e92:	4618      	mov	r0, r3
 8002e94:	6839      	ldr	r1, [r7, #0]
 8002e96:	f000 f85d 	bl	8002f54 <execManipSubtasks>
 8002e9a:	482d      	ldr	r0, [pc, #180]	; (8002f50 <execManipTasks+0x110>)
 8002e9c:	f7fe fed4 	bl	8001c48 <timEnable>
 8002ea0:	e04f      	b.n	8002f42 <execManipTasks+0x102>
 8002ea2:	482b      	ldr	r0, [pc, #172]	; (8002f50 <execManipTasks+0x110>)
 8002ea4:	f7fe fed0 	bl	8001c48 <timEnable>
 8002ea8:	e04b      	b.n	8002f42 <execManipTasks+0x102>
 8002eaa:	683b      	ldr	r3, [r7, #0]
 8002eac:	6a1b      	ldr	r3, [r3, #32]
 8002eae:	1c5a      	adds	r2, r3, #1
 8002eb0:	683b      	ldr	r3, [r7, #0]
 8002eb2:	621a      	str	r2, [r3, #32]
 8002eb4:	683b      	ldr	r3, [r7, #0]
 8002eb6:	6a1b      	ldr	r3, [r3, #32]
 8002eb8:	781b      	ldrb	r3, [r3, #0]
 8002eba:	2b0c      	cmp	r3, #12
 8002ebc:	d10e      	bne.n	8002edc <execManipTasks+0x9c>
 8002ebe:	683b      	ldr	r3, [r7, #0]
 8002ec0:	2200      	movs	r2, #0
 8002ec2:	f883 2024 	strb.w	r2, [r3, #36]	; 0x24
 8002ec6:	79fa      	ldrb	r2, [r7, #7]
 8002ec8:	4613      	mov	r3, r2
 8002eca:	009b      	lsls	r3, r3, #2
 8002ecc:	4413      	add	r3, r2
 8002ece:	009b      	lsls	r3, r3, #2
 8002ed0:	4a1e      	ldr	r2, [pc, #120]	; (8002f4c <execManipTasks+0x10c>)
 8002ed2:	4413      	add	r3, r2
 8002ed4:	4618      	mov	r0, r3
 8002ed6:	f7ff ff9b 	bl	8002e10 <resetChecker>
 8002eda:	e032      	b.n	8002f42 <execManipTasks+0x102>
 8002edc:	79fb      	ldrb	r3, [r7, #7]
 8002ede:	4618      	mov	r0, r3
 8002ee0:	6839      	ldr	r1, [r7, #0]
 8002ee2:	f000 f837 	bl	8002f54 <execManipSubtasks>
 8002ee6:	e02c      	b.n	8002f42 <execManipTasks+0x102>
 8002ee8:	683b      	ldr	r3, [r7, #0]
 8002eea:	2202      	movs	r2, #2
 8002eec:	f883 2024 	strb.w	r2, [r3, #36]	; 0x24
 8002ef0:	79fa      	ldrb	r2, [r7, #7]
 8002ef2:	4613      	mov	r3, r2
 8002ef4:	009b      	lsls	r3, r3, #2
 8002ef6:	4413      	add	r3, r2
 8002ef8:	009b      	lsls	r3, r3, #2
 8002efa:	4a14      	ldr	r2, [pc, #80]	; (8002f4c <execManipTasks+0x10c>)
 8002efc:	4413      	add	r3, r2
 8002efe:	4618      	mov	r0, r3
 8002f00:	f7ff ff86 	bl	8002e10 <resetChecker>
 8002f04:	e01d      	b.n	8002f42 <execManipTasks+0x102>
 8002f06:	683b      	ldr	r3, [r7, #0]
 8002f08:	2203      	movs	r2, #3
 8002f0a:	f883 2024 	strb.w	r2, [r3, #36]	; 0x24
 8002f0e:	79fa      	ldrb	r2, [r7, #7]
 8002f10:	4613      	mov	r3, r2
 8002f12:	009b      	lsls	r3, r3, #2
 8002f14:	4413      	add	r3, r2
 8002f16:	009b      	lsls	r3, r3, #2
 8002f18:	4a0c      	ldr	r2, [pc, #48]	; (8002f4c <execManipTasks+0x10c>)
 8002f1a:	4413      	add	r3, r2
 8002f1c:	4618      	mov	r0, r3
 8002f1e:	f7ff ff77 	bl	8002e10 <resetChecker>
 8002f22:	e00e      	b.n	8002f42 <execManipTasks+0x102>
 8002f24:	683b      	ldr	r3, [r7, #0]
 8002f26:	2204      	movs	r2, #4
 8002f28:	f883 2024 	strb.w	r2, [r3, #36]	; 0x24
 8002f2c:	79fa      	ldrb	r2, [r7, #7]
 8002f2e:	4613      	mov	r3, r2
 8002f30:	009b      	lsls	r3, r3, #2
 8002f32:	4413      	add	r3, r2
 8002f34:	009b      	lsls	r3, r3, #2
 8002f36:	4a05      	ldr	r2, [pc, #20]	; (8002f4c <execManipTasks+0x10c>)
 8002f38:	4413      	add	r3, r2
 8002f3a:	4618      	mov	r0, r3
 8002f3c:	f7ff ff68 	bl	8002e10 <resetChecker>
 8002f40:	bf00      	nop
 8002f42:	bf00      	nop
 8002f44:	bf00      	nop
 8002f46:	3710      	adds	r7, #16
 8002f48:	46bd      	mov	sp, r7
 8002f4a:	bd80      	pop	{r7, pc}
 8002f4c:	20014f04 	.word	0x20014f04
 8002f50:	40000c00 	.word	0x40000c00

08002f54 <execManipSubtasks>:
 8002f54:	b590      	push	{r4, r7, lr}
 8002f56:	b085      	sub	sp, #20
 8002f58:	af00      	add	r7, sp, #0
 8002f5a:	4603      	mov	r3, r0
 8002f5c:	6039      	str	r1, [r7, #0]
 8002f5e:	71fb      	strb	r3, [r7, #7]
 8002f60:	683b      	ldr	r3, [r7, #0]
 8002f62:	6a1b      	ldr	r3, [r3, #32]
 8002f64:	781b      	ldrb	r3, [r3, #0]
 8002f66:	733b      	strb	r3, [r7, #12]
 8002f68:	7b3b      	ldrb	r3, [r7, #12]
 8002f6a:	2b0c      	cmp	r3, #12
 8002f6c:	d875      	bhi.n	800305a <execManipSubtasks+0x106>
 8002f6e:	a201      	add	r2, pc, #4	; (adr r2, 8002f74 <execManipSubtasks+0x20>)
 8002f70:	f852 f023 	ldr.w	pc, [r2, r3, lsl #2]
 8002f74:	08002fa9 	.word	0x08002fa9
 8002f78:	08002fb7 	.word	0x08002fb7
 8002f7c:	08002fc5 	.word	0x08002fc5
 8002f80:	08002fd3 	.word	0x08002fd3
 8002f84:	08002fe1 	.word	0x08002fe1
 8002f88:	08002fef 	.word	0x08002fef
 8002f8c:	08002ffd 	.word	0x08002ffd
 8002f90:	0800300b 	.word	0x0800300b
 8002f94:	08003019 	.word	0x08003019
 8002f98:	08003027 	.word	0x08003027
 8002f9c:	08003035 	.word	0x08003035
 8002fa0:	08003043 	.word	0x08003043
 8002fa4:	08003051 	.word	0x08003051
 8002fa8:	683b      	ldr	r3, [r7, #0]
 8002faa:	781b      	ldrb	r3, [r3, #0]
 8002fac:	737b      	strb	r3, [r7, #13]
 8002fae:	683b      	ldr	r3, [r7, #0]
 8002fb0:	885b      	ldrh	r3, [r3, #2]
 8002fb2:	81fb      	strh	r3, [r7, #14]
 8002fb4:	e051      	b.n	800305a <execManipSubtasks+0x106>
 8002fb6:	683b      	ldr	r3, [r7, #0]
 8002fb8:	781b      	ldrb	r3, [r3, #0]
 8002fba:	737b      	strb	r3, [r7, #13]
 8002fbc:	683b      	ldr	r3, [r7, #0]
 8002fbe:	889b      	ldrh	r3, [r3, #4]
 8002fc0:	81fb      	strh	r3, [r7, #14]
 8002fc2:	e04a      	b.n	800305a <execManipSubtasks+0x106>
 8002fc4:	683b      	ldr	r3, [r7, #0]
 8002fc6:	799b      	ldrb	r3, [r3, #6]
 8002fc8:	737b      	strb	r3, [r7, #13]
 8002fca:	683b      	ldr	r3, [r7, #0]
 8002fcc:	895b      	ldrh	r3, [r3, #10]
 8002fce:	81fb      	strh	r3, [r7, #14]
 8002fd0:	e043      	b.n	800305a <execManipSubtasks+0x106>
 8002fd2:	683b      	ldr	r3, [r7, #0]
 8002fd4:	799b      	ldrb	r3, [r3, #6]
 8002fd6:	737b      	strb	r3, [r7, #13]
 8002fd8:	683b      	ldr	r3, [r7, #0]
 8002fda:	8a1b      	ldrh	r3, [r3, #16]
 8002fdc:	81fb      	strh	r3, [r7, #14]
 8002fde:	e03c      	b.n	800305a <execManipSubtasks+0x106>
 8002fe0:	683b      	ldr	r3, [r7, #0]
 8002fe2:	799b      	ldrb	r3, [r3, #6]
 8002fe4:	737b      	strb	r3, [r7, #13]
 8002fe6:	683b      	ldr	r3, [r7, #0]
 8002fe8:	891b      	ldrh	r3, [r3, #8]
 8002fea:	81fb      	strh	r3, [r7, #14]
 8002fec:	e035      	b.n	800305a <execManipSubtasks+0x106>
 8002fee:	683b      	ldr	r3, [r7, #0]
 8002ff0:	799b      	ldrb	r3, [r3, #6]
 8002ff2:	737b      	strb	r3, [r7, #13]
 8002ff4:	683b      	ldr	r3, [r7, #0]
 8002ff6:	899b      	ldrh	r3, [r3, #12]
 8002ff8:	81fb      	strh	r3, [r7, #14]
 8002ffa:	e02e      	b.n	800305a <execManipSubtasks+0x106>
 8002ffc:	683b      	ldr	r3, [r7, #0]
 8002ffe:	799b      	ldrb	r3, [r3, #6]
 8003000:	737b      	strb	r3, [r7, #13]
 8003002:	683b      	ldr	r3, [r7, #0]
 8003004:	89db      	ldrh	r3, [r3, #14]
 8003006:	81fb      	strh	r3, [r7, #14]
 8003008:	e027      	b.n	800305a <execManipSubtasks+0x106>
 800300a:	683b      	ldr	r3, [r7, #0]
 800300c:	7c9b      	ldrb	r3, [r3, #18]
 800300e:	737b      	strb	r3, [r7, #13]
 8003010:	683b      	ldr	r3, [r7, #0]
 8003012:	8a9b      	ldrh	r3, [r3, #20]
 8003014:	81fb      	strh	r3, [r7, #14]
 8003016:	e020      	b.n	800305a <execManipSubtasks+0x106>
 8003018:	683b      	ldr	r3, [r7, #0]
 800301a:	7c9b      	ldrb	r3, [r3, #18]
 800301c:	737b      	strb	r3, [r7, #13]
 800301e:	683b      	ldr	r3, [r7, #0]
 8003020:	8adb      	ldrh	r3, [r3, #22]
 8003022:	81fb      	strh	r3, [r7, #14]
 8003024:	e019      	b.n	800305a <execManipSubtasks+0x106>
 8003026:	683b      	ldr	r3, [r7, #0]
 8003028:	7c9b      	ldrb	r3, [r3, #18]
 800302a:	737b      	strb	r3, [r7, #13]
 800302c:	683b      	ldr	r3, [r7, #0]
 800302e:	8b1b      	ldrh	r3, [r3, #24]
 8003030:	81fb      	strh	r3, [r7, #14]
 8003032:	e012      	b.n	800305a <execManipSubtasks+0x106>
 8003034:	683b      	ldr	r3, [r7, #0]
 8003036:	7e9b      	ldrb	r3, [r3, #26]
 8003038:	737b      	strb	r3, [r7, #13]
 800303a:	683b      	ldr	r3, [r7, #0]
 800303c:	8bdb      	ldrh	r3, [r3, #30]
 800303e:	81fb      	strh	r3, [r7, #14]
 8003040:	e00b      	b.n	800305a <execManipSubtasks+0x106>
 8003042:	683b      	ldr	r3, [r7, #0]
 8003044:	7e9b      	ldrb	r3, [r3, #26]
 8003046:	737b      	strb	r3, [r7, #13]
 8003048:	683b      	ldr	r3, [r7, #0]
 800304a:	8b9b      	ldrh	r3, [r3, #28]
 800304c:	81fb      	strh	r3, [r7, #14]
 800304e:	e004      	b.n	800305a <execManipSubtasks+0x106>
 8003050:	683b      	ldr	r3, [r7, #0]
 8003052:	2205      	movs	r2, #5
 8003054:	f883 2024 	strb.w	r2, [r3, #36]	; 0x24
 8003058:	e075      	b.n	8003146 <execManipSubtasks+0x1f2>
 800305a:	7b7a      	ldrb	r2, [r7, #13]
 800305c:	f107 0308 	add.w	r3, r7, #8
 8003060:	4610      	mov	r0, r2
 8003062:	4619      	mov	r1, r3
 8003064:	f7ff fe76 	bl	8002d54 <getServoAngleWithRetries>
 8003068:	4603      	mov	r3, r0
 800306a:	2b00      	cmp	r3, #0
 800306c:	d10e      	bne.n	800308c <execManipSubtasks+0x138>
 800306e:	683b      	ldr	r3, [r7, #0]
 8003070:	2202      	movs	r2, #2
 8003072:	f883 2024 	strb.w	r2, [r3, #36]	; 0x24
 8003076:	79fa      	ldrb	r2, [r7, #7]
 8003078:	4613      	mov	r3, r2
 800307a:	009b      	lsls	r3, r3, #2
 800307c:	4413      	add	r3, r2
 800307e:	009b      	lsls	r3, r3, #2
 8003080:	4a32      	ldr	r2, [pc, #200]	; (800314c <execManipSubtasks+0x1f8>)
 8003082:	4413      	add	r3, r2
 8003084:	4618      	mov	r0, r3
 8003086:	f7ff fec3 	bl	8002e10 <resetChecker>
 800308a:	e05c      	b.n	8003146 <execManipSubtasks+0x1f2>
 800308c:	7b7a      	ldrb	r2, [r7, #13]
 800308e:	89fb      	ldrh	r3, [r7, #14]
 8003090:	4610      	mov	r0, r2
 8003092:	4619      	mov	r1, r3
 8003094:	f7ff fe3e 	bl	8002d14 <setServoAngleWithRetries>
 8003098:	4603      	mov	r3, r0
 800309a:	2b00      	cmp	r3, #0
 800309c:	d10e      	bne.n	80030bc <execManipSubtasks+0x168>
 800309e:	683b      	ldr	r3, [r7, #0]
 80030a0:	2202      	movs	r2, #2
 80030a2:	f883 2024 	strb.w	r2, [r3, #36]	; 0x24
 80030a6:	79fa      	ldrb	r2, [r7, #7]
 80030a8:	4613      	mov	r3, r2
 80030aa:	009b      	lsls	r3, r3, #2
 80030ac:	4413      	add	r3, r2
 80030ae:	009b      	lsls	r3, r3, #2
 80030b0:	4a26      	ldr	r2, [pc, #152]	; (800314c <execManipSubtasks+0x1f8>)
 80030b2:	4413      	add	r3, r2
 80030b4:	4618      	mov	r0, r3
 80030b6:	f7ff feab 	bl	8002e10 <resetChecker>
 80030ba:	e044      	b.n	8003146 <execManipSubtasks+0x1f2>
 80030bc:	79fa      	ldrb	r2, [r7, #7]
 80030be:	4613      	mov	r3, r2
 80030c0:	009b      	lsls	r3, r3, #2
 80030c2:	4413      	add	r3, r2
 80030c4:	009b      	lsls	r3, r3, #2
 80030c6:	4a21      	ldr	r2, [pc, #132]	; (800314c <execManipSubtasks+0x1f8>)
 80030c8:	4413      	add	r3, r2
 80030ca:	4618      	mov	r0, r3
 80030cc:	f7ff fea0 	bl	8002e10 <resetChecker>
 80030d0:	79fa      	ldrb	r2, [r7, #7]
 80030d2:	491e      	ldr	r1, [pc, #120]	; (800314c <execManipSubtasks+0x1f8>)
 80030d4:	4613      	mov	r3, r2
 80030d6:	009b      	lsls	r3, r3, #2
 80030d8:	4413      	add	r3, r2
 80030da:	009b      	lsls	r3, r3, #2
 80030dc:	440b      	add	r3, r1
 80030de:	7b7a      	ldrb	r2, [r7, #13]
 80030e0:	701a      	strb	r2, [r3, #0]
 80030e2:	79fa      	ldrb	r2, [r7, #7]
 80030e4:	89fb      	ldrh	r3, [r7, #14]
 80030e6:	ee07 3a10 	vmov	s14, r3
 80030ea:	eef8 7a47 	vcvt.f32.u32	s15, s14
 80030ee:	4917      	ldr	r1, [pc, #92]	; (800314c <execManipSubtasks+0x1f8>)
 80030f0:	4613      	mov	r3, r2
 80030f2:	009b      	lsls	r3, r3, #2
 80030f4:	4413      	add	r3, r2
 80030f6:	009b      	lsls	r3, r3, #2
 80030f8:	440b      	add	r3, r1
 80030fa:	3308      	adds	r3, #8
 80030fc:	edc3 7a00 	vstr	s15, [r3]
 8003100:	79fa      	ldrb	r2, [r7, #7]
 8003102:	68b9      	ldr	r1, [r7, #8]
 8003104:	4811      	ldr	r0, [pc, #68]	; (800314c <execManipSubtasks+0x1f8>)
 8003106:	4613      	mov	r3, r2
 8003108:	009b      	lsls	r3, r3, #2
 800310a:	4413      	add	r3, r2
 800310c:	009b      	lsls	r3, r3, #2
 800310e:	4403      	add	r3, r0
 8003110:	3308      	adds	r3, #8
 8003112:	6059      	str	r1, [r3, #4]
 8003114:	79fa      	ldrb	r2, [r7, #7]
 8003116:	490d      	ldr	r1, [pc, #52]	; (800314c <execManipSubtasks+0x1f8>)
 8003118:	4613      	mov	r3, r2
 800311a:	009b      	lsls	r3, r3, #2
 800311c:	4413      	add	r3, r2
 800311e:	009b      	lsls	r3, r3, #2
 8003120:	440b      	add	r3, r1
 8003122:	3310      	adds	r3, #16
 8003124:	2201      	movs	r2, #1
 8003126:	701a      	strb	r2, [r3, #0]
 8003128:	79fc      	ldrb	r4, [r7, #7]
 800312a:	f7ff fd67 	bl	8002bfc <getLocalTime>
 800312e:	4602      	mov	r2, r0
 8003130:	4906      	ldr	r1, [pc, #24]	; (800314c <execManipSubtasks+0x1f8>)
 8003132:	4623      	mov	r3, r4
 8003134:	009b      	lsls	r3, r3, #2
 8003136:	4423      	add	r3, r4
 8003138:	009b      	lsls	r3, r3, #2
 800313a:	440b      	add	r3, r1
 800313c:	605a      	str	r2, [r3, #4]
 800313e:	4804      	ldr	r0, [pc, #16]	; (8003150 <execManipSubtasks+0x1fc>)
 8003140:	f7fe fd82 	bl	8001c48 <timEnable>
 8003144:	bf00      	nop
 8003146:	3714      	adds	r7, #20
 8003148:	46bd      	mov	sp, r7
 800314a:	bd90      	pop	{r4, r7, pc}
 800314c:	20014f04 	.word	0x20014f04
 8003150:	40000c00 	.word	0x40000c00

08003154 <normalizeAngle>:
 8003154:	b480      	push	{r7}
 8003156:	b083      	sub	sp, #12
 8003158:	af00      	add	r7, sp, #0
 800315a:	6078      	str	r0, [r7, #4]
 800315c:	687b      	ldr	r3, [r7, #4]
 800315e:	ed93 7a00 	vldr	s14, [r3]
 8003162:	eddf 7a15 	vldr	s15, [pc, #84]	; 80031b8 <normalizeAngle+0x64>
 8003166:	eeb4 7ae7 	vcmpe.f32	s14, s15
 800316a:	eef1 fa10 	vmrs	APSR_nzcv, fpscr
 800316e:	db0a      	blt.n	8003186 <normalizeAngle+0x32>
 8003170:	687b      	ldr	r3, [r7, #4]
 8003172:	ed93 7a00 	vldr	s14, [r3]
 8003176:	eddf 7a10 	vldr	s15, [pc, #64]	; 80031b8 <normalizeAngle+0x64>
 800317a:	ee77 7a67 	vsub.f32	s15, s14, s15
 800317e:	687b      	ldr	r3, [r7, #4]
 8003180:	edc3 7a00 	vstr	s15, [r3]
 8003184:	e012      	b.n	80031ac <normalizeAngle+0x58>
 8003186:	687b      	ldr	r3, [r7, #4]
 8003188:	edd3 7a00 	vldr	s15, [r3]
 800318c:	eef5 7ac0 	vcmpe.f32	s15, #0.0
 8003190:	eef1 fa10 	vmrs	APSR_nzcv, fpscr
 8003194:	d400      	bmi.n	8003198 <normalizeAngle+0x44>
 8003196:	e00a      	b.n	80031ae <normalizeAngle+0x5a>
 8003198:	687b      	ldr	r3, [r7, #4]
 800319a:	ed93 7a00 	vldr	s14, [r3]
 800319e:	eddf 7a06 	vldr	s15, [pc, #24]	; 80031b8 <normalizeAngle+0x64>
 80031a2:	ee77 7a27 	vadd.f32	s15, s14, s15
 80031a6:	687b      	ldr	r3, [r7, #4]
 80031a8:	edc3 7a00 	vstr	s15, [r3]
 80031ac:	bf00      	nop
 80031ae:	370c      	adds	r7, #12
 80031b0:	46bd      	mov	sp, r7
 80031b2:	f85d 7b04 	ldr.w	r7, [sp], #4
 80031b6:	4770      	bx	lr
 80031b8:	40c90fdb 	.word	0x40c90fdb

080031bc <maxValue>:
 80031bc:	b480      	push	{r7}
 80031be:	b087      	sub	sp, #28
 80031c0:	af00      	add	r7, sp, #0
 80031c2:	60f8      	str	r0, [r7, #12]
 80031c4:	460b      	mov	r3, r1
 80031c6:	607a      	str	r2, [r7, #4]
 80031c8:	72fb      	strb	r3, [r7, #11]
 80031ca:	68fb      	ldr	r3, [r7, #12]
 80031cc:	edd3 7a00 	vldr	s15, [r3]
 80031d0:	eef0 7ae7 	vabs.f32	s15, s15
 80031d4:	687b      	ldr	r3, [r7, #4]
 80031d6:	edc3 7a00 	vstr	s15, [r3]
 80031da:	2301      	movs	r3, #1
 80031dc:	75fb      	strb	r3, [r7, #23]
 80031de:	e01d      	b.n	800321c <maxValue+0x60>
 80031e0:	687b      	ldr	r3, [r7, #4]
 80031e2:	ed93 7a00 	vldr	s14, [r3]
 80031e6:	7dfb      	ldrb	r3, [r7, #23]
 80031e8:	009b      	lsls	r3, r3, #2
 80031ea:	68fa      	ldr	r2, [r7, #12]
 80031ec:	4413      	add	r3, r2
 80031ee:	edd3 7a00 	vldr	s15, [r3]
 80031f2:	eef0 7ae7 	vabs.f32	s15, s15
 80031f6:	eeb4 7ae7 	vcmpe.f32	s14, s15
 80031fa:	eef1 fa10 	vmrs	APSR_nzcv, fpscr
 80031fe:	d50a      	bpl.n	8003216 <maxValue+0x5a>
 8003200:	7dfb      	ldrb	r3, [r7, #23]
 8003202:	009b      	lsls	r3, r3, #2
 8003204:	68fa      	ldr	r2, [r7, #12]
 8003206:	4413      	add	r3, r2
 8003208:	edd3 7a00 	vldr	s15, [r3]
 800320c:	eef0 7ae7 	vabs.f32	s15, s15
 8003210:	687b      	ldr	r3, [r7, #4]
 8003212:	edc3 7a00 	vstr	s15, [r3]
 8003216:	7dfb      	ldrb	r3, [r7, #23]
 8003218:	3301      	adds	r3, #1
 800321a:	75fb      	strb	r3, [r7, #23]
 800321c:	7dfa      	ldrb	r2, [r7, #23]
 800321e:	7afb      	ldrb	r3, [r7, #11]
 8003220:	3b01      	subs	r3, #1
 8003222:	429a      	cmp	r2, r3
 8003224:	dddc      	ble.n	80031e0 <maxValue+0x24>
 8003226:	bf00      	nop
 8003228:	371c      	adds	r7, #28
 800322a:	46bd      	mov	sp, r7
 800322c:	f85d 7b04 	ldr.w	r7, [sp], #4
 8003230:	4770      	bx	lr
 8003232:	bf00      	nop

08003234 <calcGlobSpeedAndCoord>:
 8003234:	b580      	push	{r7, lr}
 8003236:	b08a      	sub	sp, #40	; 0x28
 8003238:	af04      	add	r7, sp, #16
 800323a:	4b36      	ldr	r3, [pc, #216]	; (8003314 <calcGlobSpeedAndCoord+0xe0>)
 800323c:	689b      	ldr	r3, [r3, #8]
 800323e:	617b      	str	r3, [r7, #20]
 8003240:	ed97 0a05 	vldr	s0, [r7, #20]
 8003244:	f005 fb02 	bl	800884c <cosf>
 8003248:	eef0 7a40 	vmov.f32	s15, s0
 800324c:	edc7 7a01 	vstr	s15, [r7, #4]
 8003250:	ed97 0a05 	vldr	s0, [r7, #20]
 8003254:	f005 fb36 	bl	80088c4 <sinf>
 8003258:	eef0 7a40 	vmov.f32	s15, s0
 800325c:	eef1 7a67 	vneg.f32	s15, s15
 8003260:	edc7 7a02 	vstr	s15, [r7, #8]
 8003264:	ed97 0a05 	vldr	s0, [r7, #20]
 8003268:	f005 fb2c 	bl	80088c4 <sinf>
 800326c:	eef0 7a40 	vmov.f32	s15, s0
 8003270:	edc7 7a03 	vstr	s15, [r7, #12]
 8003274:	ed97 0a05 	vldr	s0, [r7, #20]
 8003278:	f005 fae8 	bl	800884c <cosf>
 800327c:	eef0 7a40 	vmov.f32	s15, s0
 8003280:	edc7 7a04 	vstr	s15, [r7, #16]
 8003284:	1d3b      	adds	r3, r7, #4
 8003286:	2202      	movs	r2, #2
 8003288:	9200      	str	r2, [sp, #0]
 800328a:	2201      	movs	r2, #1
 800328c:	9201      	str	r2, [sp, #4]
 800328e:	4a22      	ldr	r2, [pc, #136]	; (8003318 <calcGlobSpeedAndCoord+0xe4>)
 8003290:	9202      	str	r2, [sp, #8]
 8003292:	4618      	mov	r0, r3
 8003294:	2102      	movs	r1, #2
 8003296:	2202      	movs	r2, #2
 8003298:	4b20      	ldr	r3, [pc, #128]	; (800331c <calcGlobSpeedAndCoord+0xe8>)
 800329a:	f000 fff3 	bl	8004284 <matrixMultiplyM2M>
 800329e:	4b1f      	ldr	r3, [pc, #124]	; (800331c <calcGlobSpeedAndCoord+0xe8>)
 80032a0:	689a      	ldr	r2, [r3, #8]
 80032a2:	4b1d      	ldr	r3, [pc, #116]	; (8003318 <calcGlobSpeedAndCoord+0xe4>)
 80032a4:	609a      	str	r2, [r3, #8]
 80032a6:	4b1b      	ldr	r3, [pc, #108]	; (8003314 <calcGlobSpeedAndCoord+0xe0>)
 80032a8:	ed93 7a00 	vldr	s14, [r3]
 80032ac:	4b1a      	ldr	r3, [pc, #104]	; (8003318 <calcGlobSpeedAndCoord+0xe4>)
 80032ae:	edd3 6a00 	vldr	s13, [r3]
 80032b2:	4b1b      	ldr	r3, [pc, #108]	; (8003320 <calcGlobSpeedAndCoord+0xec>)
 80032b4:	edd3 7a00 	vldr	s15, [r3]
 80032b8:	ee66 7aa7 	vmul.f32	s15, s13, s15
 80032bc:	ee77 7a27 	vadd.f32	s15, s14, s15
 80032c0:	4b14      	ldr	r3, [pc, #80]	; (8003314 <calcGlobSpeedAndCoord+0xe0>)
 80032c2:	edc3 7a00 	vstr	s15, [r3]
 80032c6:	4b13      	ldr	r3, [pc, #76]	; (8003314 <calcGlobSpeedAndCoord+0xe0>)
 80032c8:	ed93 7a01 	vldr	s14, [r3, #4]
 80032cc:	4b12      	ldr	r3, [pc, #72]	; (8003318 <calcGlobSpeedAndCoord+0xe4>)
 80032ce:	edd3 6a01 	vldr	s13, [r3, #4]
 80032d2:	4b13      	ldr	r3, [pc, #76]	; (8003320 <calcGlobSpeedAndCoord+0xec>)
 80032d4:	edd3 7a00 	vldr	s15, [r3]
 80032d8:	ee66 7aa7 	vmul.f32	s15, s13, s15
 80032dc:	ee77 7a27 	vadd.f32	s15, s14, s15
 80032e0:	4b0c      	ldr	r3, [pc, #48]	; (8003314 <calcGlobSpeedAndCoord+0xe0>)
 80032e2:	edc3 7a01 	vstr	s15, [r3, #4]
 80032e6:	4b0b      	ldr	r3, [pc, #44]	; (8003314 <calcGlobSpeedAndCoord+0xe0>)
 80032e8:	ed93 7a02 	vldr	s14, [r3, #8]
 80032ec:	4b0a      	ldr	r3, [pc, #40]	; (8003318 <calcGlobSpeedAndCoord+0xe4>)
 80032ee:	edd3 6a02 	vldr	s13, [r3, #8]
 80032f2:	4b0b      	ldr	r3, [pc, #44]	; (8003320 <calcGlobSpeedAndCoord+0xec>)
 80032f4:	edd3 7a00 	vldr	s15, [r3]
 80032f8:	ee66 7aa7 	vmul.f32	s15, s13, s15
 80032fc:	ee77 7a27 	vadd.f32	s15, s14, s15
 8003300:	4b04      	ldr	r3, [pc, #16]	; (8003314 <calcGlobSpeedAndCoord+0xe0>)
 8003302:	edc3 7a02 	vstr	s15, [r3, #8]
 8003306:	4807      	ldr	r0, [pc, #28]	; (8003324 <calcGlobSpeedAndCoord+0xf0>)
 8003308:	f7ff ff24 	bl	8003154 <normalizeAngle>
 800330c:	bf00      	nop
 800330e:	3718      	adds	r7, #24
 8003310:	46bd      	mov	sp, r7
 8003312:	bd80      	pop	{r7, pc}
 8003314:	20015090 	.word	0x20015090
 8003318:	2001509c 	.word	0x2001509c
 800331c:	20015084 	.word	0x20015084
 8003320:	2001506c 	.word	0x2001506c
 8003324:	20015098 	.word	0x20015098

08003328 <readEnc>:
 8003328:	b580      	push	{r7, lr}
 800332a:	b084      	sub	sp, #16
 800332c:	af00      	add	r7, sp, #0
 800332e:	2300      	movs	r3, #0
 8003330:	73fb      	strb	r3, [r7, #15]
 8003332:	e01a      	b.n	800336a <readEnc+0x42>
 8003334:	7bf9      	ldrb	r1, [r7, #15]
 8003336:	7bfa      	ldrb	r2, [r7, #15]
 8003338:	4b63      	ldr	r3, [pc, #396]	; (80034c8 <readEnc+0x1a0>)
 800333a:	f853 3022 	ldr.w	r3, [r3, r2, lsl #2]
 800333e:	881b      	ldrh	r3, [r3, #0]
 8003340:	f5a3 43ea 	sub.w	r3, r3, #29952	; 0x7500
 8003344:	3b30      	subs	r3, #48	; 0x30
 8003346:	b29b      	uxth	r3, r3
 8003348:	b29a      	uxth	r2, r3
 800334a:	004b      	lsls	r3, r1, #1
 800334c:	f107 0110 	add.w	r1, r7, #16
 8003350:	440b      	add	r3, r1
 8003352:	f823 2c0c 	strh.w	r2, [r3, #-12]
 8003356:	7bfa      	ldrb	r2, [r7, #15]
 8003358:	4b5b      	ldr	r3, [pc, #364]	; (80034c8 <readEnc+0x1a0>)
 800335a:	f853 3022 	ldr.w	r3, [r3, r2, lsl #2]
 800335e:	f247 5230 	movw	r2, #30000	; 0x7530
 8003362:	801a      	strh	r2, [r3, #0]
 8003364:	7bfb      	ldrb	r3, [r7, #15]
 8003366:	3301      	adds	r3, #1
 8003368:	73fb      	strb	r3, [r7, #15]
 800336a:	7bfb      	ldrb	r3, [r7, #15]
 800336c:	2b03      	cmp	r3, #3
 800336e:	d9e1      	bls.n	8003334 <readEnc+0xc>
 8003370:	4b56      	ldr	r3, [pc, #344]	; (80034cc <readEnc+0x1a4>)
 8003372:	681b      	ldr	r3, [r3, #0]
 8003374:	4618      	mov	r0, r3
 8003376:	f7ff fc4d 	bl	8002c14 <getTimeDifference>
 800337a:	4603      	mov	r3, r0
 800337c:	ee07 3a90 	vmov	s15, r3
 8003380:	eeb8 7a67 	vcvt.f32.u32	s14, s15
 8003384:	eddf 7a52 	vldr	s15, [pc, #328]	; 80034d0 <readEnc+0x1a8>
 8003388:	eec7 7a27 	vdiv.f32	s15, s14, s15
 800338c:	4b51      	ldr	r3, [pc, #324]	; (80034d4 <readEnc+0x1ac>)
 800338e:	edc3 7a00 	vstr	s15, [r3]
 8003392:	f7ff fc33 	bl	8002bfc <getLocalTime>
 8003396:	4602      	mov	r2, r0
 8003398:	4b4c      	ldr	r3, [pc, #304]	; (80034cc <readEnc+0x1a4>)
 800339a:	601a      	str	r2, [r3, #0]
 800339c:	4b4d      	ldr	r3, [pc, #308]	; (80034d4 <readEnc+0x1ac>)
 800339e:	edd3 7a00 	vldr	s15, [r3]
 80033a2:	eef5 7a40 	vcmp.f32	s15, #0.0
 80033a6:	eef1 fa10 	vmrs	APSR_nzcv, fpscr
 80033aa:	d100      	bne.n	80033ae <readEnc+0x86>
 80033ac:	e088      	b.n	80034c0 <readEnc+0x198>
 80033ae:	2300      	movs	r3, #0
 80033b0:	73fb      	strb	r3, [r7, #15]
 80033b2:	e04a      	b.n	800344a <readEnc+0x122>
 80033b4:	7bf9      	ldrb	r1, [r7, #15]
 80033b6:	7bfb      	ldrb	r3, [r7, #15]
 80033b8:	005b      	lsls	r3, r3, #1
 80033ba:	f107 0210 	add.w	r2, r7, #16
 80033be:	4413      	add	r3, r2
 80033c0:	f833 3c0c 	ldrh.w	r3, [r3, #-12]
 80033c4:	b21b      	sxth	r3, r3
 80033c6:	ee07 3a10 	vmov	s14, r3
 80033ca:	eef8 7ac7 	vcvt.f32.s32	s15, s14
 80033ce:	ee37 7aa7 	vadd.f32	s14, s15, s15
 80033d2:	eddf 7a41 	vldr	s15, [pc, #260]	; 80034d8 <readEnc+0x1b0>
 80033d6:	ee27 7a27 	vmul.f32	s14, s14, s15
 80033da:	eddf 7a40 	vldr	s15, [pc, #256]	; 80034dc <readEnc+0x1b4>
 80033de:	ee87 7a27 	vdiv.f32	s14, s14, s15
 80033e2:	4b3c      	ldr	r3, [pc, #240]	; (80034d4 <readEnc+0x1ac>)
 80033e4:	edd3 7a00 	vldr	s15, [r3]
 80033e8:	eec7 7a27 	vdiv.f32	s15, s14, s15
 80033ec:	4a3c      	ldr	r2, [pc, #240]	; (80034e0 <readEnc+0x1b8>)
 80033ee:	008b      	lsls	r3, r1, #2
 80033f0:	4413      	add	r3, r2
 80033f2:	edc3 7a00 	vstr	s15, [r3]
 80033f6:	7bfb      	ldrb	r3, [r7, #15]
 80033f8:	2b00      	cmp	r3, #0
 80033fa:	d002      	beq.n	8003402 <readEnc+0xda>
 80033fc:	7bfb      	ldrb	r3, [r7, #15]
 80033fe:	2b03      	cmp	r3, #3
 8003400:	d120      	bne.n	8003444 <readEnc+0x11c>
 8003402:	7bf9      	ldrb	r1, [r7, #15]
 8003404:	7bfb      	ldrb	r3, [r7, #15]
 8003406:	005b      	lsls	r3, r3, #1
 8003408:	f107 0210 	add.w	r2, r7, #16
 800340c:	4413      	add	r3, r2
 800340e:	f833 3c0c 	ldrh.w	r3, [r3, #-12]
 8003412:	b21b      	sxth	r3, r3
 8003414:	ee07 3a10 	vmov	s14, r3
 8003418:	eef8 7ac7 	vcvt.f32.s32	s15, s14
 800341c:	ee37 7aa7 	vadd.f32	s14, s15, s15
 8003420:	eddf 7a2d 	vldr	s15, [pc, #180]	; 80034d8 <readEnc+0x1b0>
 8003424:	ee27 7a27 	vmul.f32	s14, s14, s15
 8003428:	eddf 7a2e 	vldr	s15, [pc, #184]	; 80034e4 <readEnc+0x1bc>
 800342c:	ee87 7a27 	vdiv.f32	s14, s14, s15
 8003430:	4b28      	ldr	r3, [pc, #160]	; (80034d4 <readEnc+0x1ac>)
 8003432:	edd3 7a00 	vldr	s15, [r3]
 8003436:	eec7 7a27 	vdiv.f32	s15, s14, s15
 800343a:	4a29      	ldr	r2, [pc, #164]	; (80034e0 <readEnc+0x1b8>)
 800343c:	008b      	lsls	r3, r1, #2
 800343e:	4413      	add	r3, r2
 8003440:	edc3 7a00 	vstr	s15, [r3]
 8003444:	7bfb      	ldrb	r3, [r7, #15]
 8003446:	3301      	adds	r3, #1
 8003448:	73fb      	strb	r3, [r7, #15]
 800344a:	7bfb      	ldrb	r3, [r7, #15]
 800344c:	2b03      	cmp	r3, #3
 800344e:	d9b1      	bls.n	80033b4 <readEnc+0x8c>
 8003450:	4b23      	ldr	r3, [pc, #140]	; (80034e0 <readEnc+0x1b8>)
 8003452:	edd3 7a01 	vldr	s15, [r3, #4]
 8003456:	eef1 7a67 	vneg.f32	s15, s15
 800345a:	4b21      	ldr	r3, [pc, #132]	; (80034e0 <readEnc+0x1b8>)
 800345c:	edc3 7a01 	vstr	s15, [r3, #4]
 8003460:	4b1f      	ldr	r3, [pc, #124]	; (80034e0 <readEnc+0x1b8>)
 8003462:	edd3 7a02 	vldr	s15, [r3, #8]
 8003466:	eef1 7a67 	vneg.f32	s15, s15
 800346a:	4b1d      	ldr	r3, [pc, #116]	; (80034e0 <readEnc+0x1b8>)
 800346c:	edc3 7a02 	vstr	s15, [r3, #8]
 8003470:	f000 f8a2 	bl	80035b8 <calcInverseKin>
 8003474:	2300      	movs	r3, #0
 8003476:	73fb      	strb	r3, [r7, #15]
 8003478:	e01b      	b.n	80034b2 <readEnc+0x18a>
 800347a:	7bfb      	ldrb	r3, [r7, #15]
 800347c:	7bfa      	ldrb	r2, [r7, #15]
 800347e:	491a      	ldr	r1, [pc, #104]	; (80034e8 <readEnc+0x1c0>)
 8003480:	0092      	lsls	r2, r2, #2
 8003482:	440a      	add	r2, r1
 8003484:	ed92 7a00 	vldr	s14, [r2]
 8003488:	7bfa      	ldrb	r2, [r7, #15]
 800348a:	4918      	ldr	r1, [pc, #96]	; (80034ec <readEnc+0x1c4>)
 800348c:	0092      	lsls	r2, r2, #2
 800348e:	440a      	add	r2, r1
 8003490:	edd2 6a00 	vldr	s13, [r2]
 8003494:	4a0f      	ldr	r2, [pc, #60]	; (80034d4 <readEnc+0x1ac>)
 8003496:	edd2 7a00 	vldr	s15, [r2]
 800349a:	ee66 7aa7 	vmul.f32	s15, s13, s15
 800349e:	ee77 7a27 	vadd.f32	s15, s14, s15
 80034a2:	4a11      	ldr	r2, [pc, #68]	; (80034e8 <readEnc+0x1c0>)
 80034a4:	009b      	lsls	r3, r3, #2
 80034a6:	4413      	add	r3, r2
 80034a8:	edc3 7a00 	vstr	s15, [r3]
 80034ac:	7bfb      	ldrb	r3, [r7, #15]
 80034ae:	3301      	adds	r3, #1
 80034b0:	73fb      	strb	r3, [r7, #15]
 80034b2:	7bfb      	ldrb	r3, [r7, #15]
 80034b4:	2b02      	cmp	r3, #2
 80034b6:	d9e0      	bls.n	800347a <readEnc+0x152>
 80034b8:	480d      	ldr	r0, [pc, #52]	; (80034f0 <readEnc+0x1c8>)
 80034ba:	f7ff fe4b 	bl	8003154 <normalizeAngle>
 80034be:	bf00      	nop
 80034c0:	3710      	adds	r7, #16
 80034c2:	46bd      	mov	sp, r7
 80034c4:	bd80      	pop	{r7, pc}
 80034c6:	bf00      	nop
 80034c8:	20000044 	.word	0x20000044
 80034cc:	20015080 	.word	0x20015080
 80034d0:	461c4000 	.word	0x461c4000
 80034d4:	2001506c 	.word	0x2001506c
 80034d8:	40490fdb 	.word	0x40490fdb
 80034dc:	47d00000 	.word	0x47d00000
 80034e0:	20015070 	.word	0x20015070
 80034e4:	47a80000 	.word	0x47a80000
 80034e8:	20014fb8 	.word	0x20014fb8
 80034ec:	20015084 	.word	0x20015084
 80034f0:	20014fc0 	.word	0x20014fc0

080034f4 <calcForwardKin>:
 80034f4:	b580      	push	{r7, lr}
 80034f6:	b092      	sub	sp, #72	; 0x48
 80034f8:	af04      	add	r7, sp, #16
 80034fa:	2303      	movs	r3, #3
 80034fc:	9300      	str	r3, [sp, #0]
 80034fe:	2301      	movs	r3, #1
 8003500:	9301      	str	r3, [sp, #4]
 8003502:	f107 0324 	add.w	r3, r7, #36	; 0x24
 8003506:	9302      	str	r3, [sp, #8]
 8003508:	4826      	ldr	r0, [pc, #152]	; (80035a4 <calcForwardKin+0xb0>)
 800350a:	2104      	movs	r1, #4
 800350c:	2203      	movs	r2, #3
 800350e:	4b26      	ldr	r3, [pc, #152]	; (80035a8 <calcForwardKin+0xb4>)
 8003510:	f000 feb8 	bl	8004284 <matrixMultiplyM2M>
 8003514:	2303      	movs	r3, #3
 8003516:	9300      	str	r3, [sp, #0]
 8003518:	2301      	movs	r3, #1
 800351a:	9301      	str	r3, [sp, #4]
 800351c:	f107 0314 	add.w	r3, r7, #20
 8003520:	9302      	str	r3, [sp, #8]
 8003522:	4822      	ldr	r0, [pc, #136]	; (80035ac <calcForwardKin+0xb8>)
 8003524:	2104      	movs	r1, #4
 8003526:	2203      	movs	r2, #3
 8003528:	4b1f      	ldr	r3, [pc, #124]	; (80035a8 <calcForwardKin+0xb4>)
 800352a:	f000 feab 	bl	8004284 <matrixMultiplyM2M>
 800352e:	f107 0224 	add.w	r2, r7, #36	; 0x24
 8003532:	f107 0314 	add.w	r3, r7, #20
 8003536:	2101      	movs	r1, #1
 8003538:	9100      	str	r1, [sp, #0]
 800353a:	1d39      	adds	r1, r7, #4
 800353c:	9101      	str	r1, [sp, #4]
 800353e:	4610      	mov	r0, r2
 8003540:	4619      	mov	r1, r3
 8003542:	2204      	movs	r2, #4
 8003544:	2301      	movs	r3, #1
 8003546:	f000 ff45 	bl	80043d4 <matrixPlusMinus>
 800354a:	1d3a      	adds	r2, r7, #4
 800354c:	463b      	mov	r3, r7
 800354e:	4610      	mov	r0, r2
 8003550:	2104      	movs	r1, #4
 8003552:	461a      	mov	r2, r3
 8003554:	f7ff fe32 	bl	80031bc <maxValue>
 8003558:	edd7 7a00 	vldr	s15, [r7]
 800355c:	eeb0 7ae7 	vabs.f32	s14, s15
 8003560:	eddf 7a13 	vldr	s15, [pc, #76]	; 80035b0 <calcForwardKin+0xbc>
 8003564:	eeb4 7ae7 	vcmpe.f32	s14, s15
 8003568:	eef1 fa10 	vmrs	APSR_nzcv, fpscr
 800356c:	dd0a      	ble.n	8003584 <calcForwardKin+0x90>
 800356e:	edd7 7a00 	vldr	s15, [r7]
 8003572:	ed9f 7a0f 	vldr	s14, [pc, #60]	; 80035b0 <calcForwardKin+0xbc>
 8003576:	eec7 7a27 	vdiv.f32	s15, s14, s15
 800357a:	eef0 7ae7 	vabs.f32	s15, s15
 800357e:	edc7 7a0d 	vstr	s15, [r7, #52]	; 0x34
 8003582:	e002      	b.n	800358a <calcForwardKin+0x96>
 8003584:	f04f 537e 	mov.w	r3, #1065353216	; 0x3f800000
 8003588:	637b      	str	r3, [r7, #52]	; 0x34
 800358a:	1d3b      	adds	r3, r7, #4
 800358c:	4618      	mov	r0, r3
 800358e:	2104      	movs	r1, #4
 8003590:	2201      	movs	r2, #1
 8003592:	ed97 0a0d 	vldr	s0, [r7, #52]	; 0x34
 8003596:	4b07      	ldr	r3, [pc, #28]	; (80035b4 <calcForwardKin+0xc0>)
 8003598:	f000 fedc 	bl	8004354 <matrixMultiplyS2M>
 800359c:	bf00      	nop
 800359e:	3738      	adds	r7, #56	; 0x38
 80035a0:	46bd      	mov	sp, r7
 80035a2:	bd80      	pop	{r7, pc}
 80035a4:	200000ec 	.word	0x200000ec
 80035a8:	20014fc8 	.word	0x20014fc8
 80035ac:	2000011c 	.word	0x2000011c
 80035b0:	41d9d12a 	.word	0x41d9d12a
 80035b4:	20014fdc 	.word	0x20014fdc

080035b8 <calcInverseKin>:
 80035b8:	b580      	push	{r7, lr}
 80035ba:	b084      	sub	sp, #16
 80035bc:	af04      	add	r7, sp, #16
 80035be:	2304      	movs	r3, #4
 80035c0:	9300      	str	r3, [sp, #0]
 80035c2:	2301      	movs	r3, #1
 80035c4:	9301      	str	r3, [sp, #4]
 80035c6:	4b05      	ldr	r3, [pc, #20]	; (80035dc <calcInverseKin+0x24>)
 80035c8:	9302      	str	r3, [sp, #8]
 80035ca:	4805      	ldr	r0, [pc, #20]	; (80035e0 <calcInverseKin+0x28>)
 80035cc:	2103      	movs	r1, #3
 80035ce:	2204      	movs	r2, #4
 80035d0:	4b04      	ldr	r3, [pc, #16]	; (80035e4 <calcInverseKin+0x2c>)
 80035d2:	f000 fe57 	bl	8004284 <matrixMultiplyM2M>
 80035d6:	46bd      	mov	sp, r7
 80035d8:	bd80      	pop	{r7, pc}
 80035da:	bf00      	nop
 80035dc:	20015084 	.word	0x20015084
 80035e0:	2000014c 	.word	0x2000014c
 80035e4:	20015070 	.word	0x20015070

080035e8 <setMotorSpeed>:
 80035e8:	b580      	push	{r7, lr}
 80035ea:	b084      	sub	sp, #16
 80035ec:	af00      	add	r7, sp, #0
 80035ee:	4603      	mov	r3, r0
 80035f0:	ed87 0a00 	vstr	s0, [r7]
 80035f4:	71fb      	strb	r3, [r7, #7]
 80035f6:	79fb      	ldrb	r3, [r7, #7]
 80035f8:	2b04      	cmp	r3, #4
 80035fa:	d900      	bls.n	80035fe <setMotorSpeed+0x16>
 80035fc:	e05e      	b.n	80036bc <setMotorSpeed+0xd4>
 80035fe:	79fb      	ldrb	r3, [r7, #7]
 8003600:	3b01      	subs	r3, #1
 8003602:	71fb      	strb	r3, [r7, #7]
 8003604:	edd7 7a00 	vldr	s15, [r7]
 8003608:	eef5 7ac0 	vcmpe.f32	s15, #0.0
 800360c:	eef1 fa10 	vmrs	APSR_nzcv, fpscr
 8003610:	db0e      	blt.n	8003630 <setMotorSpeed+0x48>
 8003612:	79fa      	ldrb	r2, [r7, #7]
 8003614:	4b2b      	ldr	r3, [pc, #172]	; (80036c4 <setMotorSpeed+0xdc>)
 8003616:	f853 2032 	ldr.w	r2, [r3, r2, lsl #3]
 800361a:	79fb      	ldrb	r3, [r7, #7]
 800361c:	4929      	ldr	r1, [pc, #164]	; (80036c4 <setMotorSpeed+0xdc>)
 800361e:	00db      	lsls	r3, r3, #3
 8003620:	440b      	add	r3, r1
 8003622:	791b      	ldrb	r3, [r3, #4]
 8003624:	4610      	mov	r0, r2
 8003626:	4619      	mov	r1, r3
 8003628:	2201      	movs	r2, #1
 800362a:	f7fd fdf1 	bl	8001210 <gpioPinSetLevel>
 800362e:	e013      	b.n	8003658 <setMotorSpeed+0x70>
 8003630:	79fa      	ldrb	r2, [r7, #7]
 8003632:	4b24      	ldr	r3, [pc, #144]	; (80036c4 <setMotorSpeed+0xdc>)
 8003634:	f853 2032 	ldr.w	r2, [r3, r2, lsl #3]
 8003638:	79fb      	ldrb	r3, [r7, #7]
 800363a:	4922      	ldr	r1, [pc, #136]	; (80036c4 <setMotorSpeed+0xdc>)
 800363c:	00db      	lsls	r3, r3, #3
 800363e:	440b      	add	r3, r1
 8003640:	791b      	ldrb	r3, [r3, #4]
 8003642:	4610      	mov	r0, r2
 8003644:	4619      	mov	r1, r3
 8003646:	2200      	movs	r2, #0
 8003648:	f7fd fde2 	bl	8001210 <gpioPinSetLevel>
 800364c:	edd7 7a00 	vldr	s15, [r7]
 8003650:	eef1 7a67 	vneg.f32	s15, s15
 8003654:	edc7 7a00 	vstr	s15, [r7]
 8003658:	ed97 7a00 	vldr	s14, [r7]
 800365c:	eddf 7a1a 	vldr	s15, [pc, #104]	; 80036c8 <setMotorSpeed+0xe0>
 8003660:	eeb4 7ae7 	vcmpe.f32	s14, s15
 8003664:	eef1 fa10 	vmrs	APSR_nzcv, fpscr
 8003668:	db02      	blt.n	8003670 <setMotorSpeed+0x88>
 800366a:	4b18      	ldr	r3, [pc, #96]	; (80036cc <setMotorSpeed+0xe4>)
 800366c:	603b      	str	r3, [r7, #0]
 800366e:	e009      	b.n	8003684 <setMotorSpeed+0x9c>
 8003670:	edd7 7a00 	vldr	s15, [r7]
 8003674:	eef5 7ac0 	vcmpe.f32	s15, #0.0
 8003678:	eef1 fa10 	vmrs	APSR_nzcv, fpscr
 800367c:	d502      	bpl.n	8003684 <setMotorSpeed+0x9c>
 800367e:	f04f 0300 	mov.w	r3, #0
 8003682:	603b      	str	r3, [r7, #0]
 8003684:	ed97 7a00 	vldr	s14, [r7]
 8003688:	eddf 7a11 	vldr	s15, [pc, #68]	; 80036d0 <setMotorSpeed+0xe8>
 800368c:	ee27 7a27 	vmul.f32	s14, s14, s15
 8003690:	eddf 7a10 	vldr	s15, [pc, #64]	; 80036d4 <setMotorSpeed+0xec>
 8003694:	ee77 7a27 	vadd.f32	s15, s14, s15
 8003698:	edc7 7a03 	vstr	s15, [r7, #12]
 800369c:	79fa      	ldrb	r2, [r7, #7]
 800369e:	4b0e      	ldr	r3, [pc, #56]	; (80036d8 <setMotorSpeed+0xf0>)
 80036a0:	f853 2032 	ldr.w	r2, [r3, r2, lsl #3]
 80036a4:	79fb      	ldrb	r3, [r7, #7]
 80036a6:	490c      	ldr	r1, [pc, #48]	; (80036d8 <setMotorSpeed+0xf0>)
 80036a8:	00db      	lsls	r3, r3, #3
 80036aa:	440b      	add	r3, r1
 80036ac:	791b      	ldrb	r3, [r3, #4]
 80036ae:	4610      	mov	r0, r2
 80036b0:	4619      	mov	r1, r3
 80036b2:	ed97 0a03 	vldr	s0, [r7, #12]
 80036b6:	f7fe fa65 	bl	8001b84 <timPwmChangeDutyCycle>
 80036ba:	bf00      	nop
 80036bc:	3710      	adds	r7, #16
 80036be:	46bd      	mov	sp, r7
 80036c0:	bd80      	pop	{r7, pc}
 80036c2:	bf00      	nop
 80036c4:	20000024 	.word	0x20000024
 80036c8:	41d9d12a 	.word	0x41d9d12a
 80036cc:	41d9d12a 	.word	0x41d9d12a
 80036d0:	3cf0b35c 	.word	0x3cf0b35c
 80036d4:	3dcccccd 	.word	0x3dcccccd
 80036d8:	20000004 	.word	0x20000004

080036dc <setMotorSpeeds>:
 80036dc:	b580      	push	{r7, lr}
 80036de:	b082      	sub	sp, #8
 80036e0:	af00      	add	r7, sp, #0
 80036e2:	2300      	movs	r3, #0
 80036e4:	71fb      	strb	r3, [r7, #7]
 80036e6:	e010      	b.n	800370a <setMotorSpeeds+0x2e>
 80036e8:	79fb      	ldrb	r3, [r7, #7]
 80036ea:	3301      	adds	r3, #1
 80036ec:	b2db      	uxtb	r3, r3
 80036ee:	79fa      	ldrb	r2, [r7, #7]
 80036f0:	4909      	ldr	r1, [pc, #36]	; (8003718 <setMotorSpeeds+0x3c>)
 80036f2:	0092      	lsls	r2, r2, #2
 80036f4:	440a      	add	r2, r1
 80036f6:	edd2 7a00 	vldr	s15, [r2]
 80036fa:	4618      	mov	r0, r3
 80036fc:	eeb0 0a67 	vmov.f32	s0, s15
 8003700:	f7ff ff72 	bl	80035e8 <setMotorSpeed>
 8003704:	79fb      	ldrb	r3, [r7, #7]
 8003706:	3301      	adds	r3, #1
 8003708:	71fb      	strb	r3, [r7, #7]
 800370a:	79fb      	ldrb	r3, [r7, #7]
 800370c:	2b03      	cmp	r3, #3
 800370e:	d9eb      	bls.n	80036e8 <setMotorSpeeds+0xc>
 8003710:	bf00      	nop
 8003712:	3708      	adds	r7, #8
 8003714:	46bd      	mov	sp, r7
 8003716:	bd80      	pop	{r7, pc}
 8003718:	20014fdc 	.word	0x20014fdc

0800371c <speedRecalculation>:
 800371c:	b480      	push	{r7}
 800371e:	b083      	sub	sp, #12
 8003720:	af00      	add	r7, sp, #0
 8003722:	2300      	movs	r3, #0
 8003724:	71fb      	strb	r3, [r7, #7]
 8003726:	e0bf      	b.n	80038a8 <speedRecalculation+0x18c>
 8003728:	79fb      	ldrb	r3, [r7, #7]
 800372a:	4a64      	ldr	r2, [pc, #400]	; (80038bc <speedRecalculation+0x1a0>)
 800372c:	5cd3      	ldrb	r3, [r2, r3]
 800372e:	2b03      	cmp	r3, #3
 8003730:	f200 80b7 	bhi.w	80038a2 <speedRecalculation+0x186>
 8003734:	a201      	add	r2, pc, #4	; (adr r2, 800373c <speedRecalculation+0x20>)
 8003736:	f852 f023 	ldr.w	pc, [r2, r3, lsl #2]
 800373a:	bf00      	nop
 800373c:	080038a3 	.word	0x080038a3
 8003740:	0800374d 	.word	0x0800374d
 8003744:	080037c5 	.word	0x080037c5
 8003748:	080037dd 	.word	0x080037dd
 800374c:	79fb      	ldrb	r3, [r7, #7]
 800374e:	79fa      	ldrb	r2, [r7, #7]
 8003750:	495b      	ldr	r1, [pc, #364]	; (80038c0 <speedRecalculation+0x1a4>)
 8003752:	0092      	lsls	r2, r2, #2
 8003754:	440a      	add	r2, r1
 8003756:	ed92 7a00 	vldr	s14, [r2]
 800375a:	79fa      	ldrb	r2, [r7, #7]
 800375c:	4957      	ldr	r1, [pc, #348]	; (80038bc <speedRecalculation+0x1a0>)
 800375e:	0092      	lsls	r2, r2, #2
 8003760:	440a      	add	r2, r1
 8003762:	edd2 6a01 	vldr	s13, [r2, #4]
 8003766:	4a57      	ldr	r2, [pc, #348]	; (80038c4 <speedRecalculation+0x1a8>)
 8003768:	edd2 7a00 	vldr	s15, [r2]
 800376c:	ee66 7aa7 	vmul.f32	s15, s13, s15
 8003770:	ee77 7a27 	vadd.f32	s15, s14, s15
 8003774:	4a52      	ldr	r2, [pc, #328]	; (80038c0 <speedRecalculation+0x1a4>)
 8003776:	009b      	lsls	r3, r3, #2
 8003778:	4413      	add	r3, r2
 800377a:	edc3 7a00 	vstr	s15, [r3]
 800377e:	79fb      	ldrb	r3, [r7, #7]
 8003780:	4a4f      	ldr	r2, [pc, #316]	; (80038c0 <speedRecalculation+0x1a4>)
 8003782:	009b      	lsls	r3, r3, #2
 8003784:	4413      	add	r3, r2
 8003786:	edd3 7a00 	vldr	s15, [r3]
 800378a:	eeb0 7ae7 	vabs.f32	s14, s15
 800378e:	79fb      	ldrb	r3, [r7, #7]
 8003790:	4a4a      	ldr	r2, [pc, #296]	; (80038bc <speedRecalculation+0x1a0>)
 8003792:	3306      	adds	r3, #6
 8003794:	009b      	lsls	r3, r3, #2
 8003796:	4413      	add	r3, r2
 8003798:	edd3 7a01 	vldr	s15, [r3, #4]
 800379c:	eef0 7ae7 	vabs.f32	s15, s15
 80037a0:	eeb4 7ae7 	vcmpe.f32	s14, s15
 80037a4:	eef1 fa10 	vmrs	APSR_nzcv, fpscr
 80037a8:	dc00      	bgt.n	80037ac <speedRecalculation+0x90>
 80037aa:	e07a      	b.n	80038a2 <speedRecalculation+0x186>
 80037ac:	79fb      	ldrb	r3, [r7, #7]
 80037ae:	79fa      	ldrb	r2, [r7, #7]
 80037b0:	4942      	ldr	r1, [pc, #264]	; (80038bc <speedRecalculation+0x1a0>)
 80037b2:	3206      	adds	r2, #6
 80037b4:	0092      	lsls	r2, r2, #2
 80037b6:	440a      	add	r2, r1
 80037b8:	6852      	ldr	r2, [r2, #4]
 80037ba:	4941      	ldr	r1, [pc, #260]	; (80038c0 <speedRecalculation+0x1a4>)
 80037bc:	009b      	lsls	r3, r3, #2
 80037be:	440b      	add	r3, r1
 80037c0:	601a      	str	r2, [r3, #0]
 80037c2:	e06e      	b.n	80038a2 <speedRecalculation+0x186>
 80037c4:	79fb      	ldrb	r3, [r7, #7]
 80037c6:	79fa      	ldrb	r2, [r7, #7]
 80037c8:	493c      	ldr	r1, [pc, #240]	; (80038bc <speedRecalculation+0x1a0>)
 80037ca:	3206      	adds	r2, #6
 80037cc:	0092      	lsls	r2, r2, #2
 80037ce:	440a      	add	r2, r1
 80037d0:	6852      	ldr	r2, [r2, #4]
 80037d2:	493b      	ldr	r1, [pc, #236]	; (80038c0 <speedRecalculation+0x1a4>)
 80037d4:	009b      	lsls	r3, r3, #2
 80037d6:	440b      	add	r3, r1
 80037d8:	601a      	str	r2, [r3, #0]
 80037da:	e062      	b.n	80038a2 <speedRecalculation+0x186>
 80037dc:	79fb      	ldrb	r3, [r7, #7]
 80037de:	4a3a      	ldr	r2, [pc, #232]	; (80038c8 <speedRecalculation+0x1ac>)
 80037e0:	009b      	lsls	r3, r3, #2
 80037e2:	4413      	add	r3, r2
 80037e4:	edd3 7a00 	vldr	s15, [r3]
 80037e8:	eeb0 7ae7 	vabs.f32	s14, s15
 80037ec:	79fb      	ldrb	r3, [r7, #7]
 80037ee:	4a33      	ldr	r2, [pc, #204]	; (80038bc <speedRecalculation+0x1a0>)
 80037f0:	330c      	adds	r3, #12
 80037f2:	009b      	lsls	r3, r3, #2
 80037f4:	4413      	add	r3, r2
 80037f6:	edd3 7a01 	vldr	s15, [r3, #4]
 80037fa:	eef0 7ae7 	vabs.f32	s15, s15
 80037fe:	eeb4 7ae7 	vcmpe.f32	s14, s15
 8003802:	eef1 fa10 	vmrs	APSR_nzcv, fpscr
 8003806:	d50f      	bpl.n	8003828 <speedRecalculation+0x10c>
 8003808:	79fb      	ldrb	r3, [r7, #7]
 800380a:	79fa      	ldrb	r2, [r7, #7]
 800380c:	492b      	ldr	r1, [pc, #172]	; (80038bc <speedRecalculation+0x1a0>)
 800380e:	320a      	adds	r2, #10
 8003810:	0092      	lsls	r2, r2, #2
 8003812:	440a      	add	r2, r1
 8003814:	6812      	ldr	r2, [r2, #0]
 8003816:	492a      	ldr	r1, [pc, #168]	; (80038c0 <speedRecalculation+0x1a4>)
 8003818:	009b      	lsls	r3, r3, #2
 800381a:	440b      	add	r3, r1
 800381c:	601a      	str	r2, [r3, #0]
 800381e:	79fb      	ldrb	r3, [r7, #7]
 8003820:	4a26      	ldr	r2, [pc, #152]	; (80038bc <speedRecalculation+0x1a0>)
 8003822:	2100      	movs	r1, #0
 8003824:	54d1      	strb	r1, [r2, r3]
 8003826:	e03c      	b.n	80038a2 <speedRecalculation+0x186>
 8003828:	79fb      	ldrb	r3, [r7, #7]
 800382a:	79fa      	ldrb	r2, [r7, #7]
 800382c:	4924      	ldr	r1, [pc, #144]	; (80038c0 <speedRecalculation+0x1a4>)
 800382e:	0092      	lsls	r2, r2, #2
 8003830:	440a      	add	r2, r1
 8003832:	ed92 7a00 	vldr	s14, [r2]
 8003836:	79fa      	ldrb	r2, [r7, #7]
 8003838:	4920      	ldr	r1, [pc, #128]	; (80038bc <speedRecalculation+0x1a0>)
 800383a:	0092      	lsls	r2, r2, #2
 800383c:	440a      	add	r2, r1
 800383e:	edd2 6a01 	vldr	s13, [r2, #4]
 8003842:	4a20      	ldr	r2, [pc, #128]	; (80038c4 <speedRecalculation+0x1a8>)
 8003844:	edd2 7a00 	vldr	s15, [r2]
 8003848:	ee66 7aa7 	vmul.f32	s15, s13, s15
 800384c:	ee77 7a67 	vsub.f32	s15, s14, s15
 8003850:	4a1b      	ldr	r2, [pc, #108]	; (80038c0 <speedRecalculation+0x1a4>)
 8003852:	009b      	lsls	r3, r3, #2
 8003854:	4413      	add	r3, r2
 8003856:	edc3 7a00 	vstr	s15, [r3]
 800385a:	79fb      	ldrb	r3, [r7, #7]
 800385c:	4a18      	ldr	r2, [pc, #96]	; (80038c0 <speedRecalculation+0x1a4>)
 800385e:	009b      	lsls	r3, r3, #2
 8003860:	4413      	add	r3, r2
 8003862:	ed93 7a00 	vldr	s14, [r3]
 8003866:	79fb      	ldrb	r3, [r7, #7]
 8003868:	4a14      	ldr	r2, [pc, #80]	; (80038bc <speedRecalculation+0x1a0>)
 800386a:	4413      	add	r3, r2
 800386c:	f893 3064 	ldrb.w	r3, [r3, #100]	; 0x64
 8003870:	b25b      	sxtb	r3, r3
 8003872:	ee06 3a90 	vmov	s13, r3
 8003876:	eef8 7ae6 	vcvt.f32.s32	s15, s13
 800387a:	ee67 7a27 	vmul.f32	s15, s14, s15
 800387e:	eef5 7ac0 	vcmpe.f32	s15, #0.0
 8003882:	eef1 fa10 	vmrs	APSR_nzcv, fpscr
 8003886:	d400      	bmi.n	800388a <speedRecalculation+0x16e>
 8003888:	e00a      	b.n	80038a0 <speedRecalculation+0x184>
 800388a:	79fb      	ldrb	r3, [r7, #7]
 800388c:	79fa      	ldrb	r2, [r7, #7]
 800388e:	490b      	ldr	r1, [pc, #44]	; (80038bc <speedRecalculation+0x1a0>)
 8003890:	320a      	adds	r2, #10
 8003892:	0092      	lsls	r2, r2, #2
 8003894:	440a      	add	r2, r1
 8003896:	6812      	ldr	r2, [r2, #0]
 8003898:	4909      	ldr	r1, [pc, #36]	; (80038c0 <speedRecalculation+0x1a4>)
 800389a:	009b      	lsls	r3, r3, #2
 800389c:	440b      	add	r3, r1
 800389e:	601a      	str	r2, [r3, #0]
 80038a0:	bf00      	nop
 80038a2:	79fb      	ldrb	r3, [r7, #7]
 80038a4:	3301      	adds	r3, #1
 80038a6:	71fb      	strb	r3, [r7, #7]
 80038a8:	79fb      	ldrb	r3, [r7, #7]
 80038aa:	2b02      	cmp	r3, #2
 80038ac:	f67f af3c 	bls.w	8003728 <speedRecalculation+0xc>
 80038b0:	bf00      	nop
 80038b2:	370c      	adds	r7, #12
 80038b4:	46bd      	mov	sp, r7
 80038b6:	f85d 7b04 	ldr.w	r7, [sp], #4
 80038ba:	4770      	bx	lr
 80038bc:	20014fec 	.word	0x20014fec
 80038c0:	20014fc8 	.word	0x20014fc8
 80038c4:	2001506c 	.word	0x2001506c
 80038c8:	20015084 	.word	0x20015084

080038cc <checkIfPositionIsReached>:
 80038cc:	b580      	push	{r7, lr}
 80038ce:	b084      	sub	sp, #16
 80038d0:	af00      	add	r7, sp, #0
 80038d2:	2300      	movs	r3, #0
 80038d4:	73fb      	strb	r3, [r7, #15]
 80038d6:	e00e      	b.n	80038f6 <checkIfPositionIsReached+0x2a>
 80038d8:	7bfb      	ldrb	r3, [r7, #15]
 80038da:	7bfa      	ldrb	r2, [r7, #15]
 80038dc:	4923      	ldr	r1, [pc, #140]	; (800396c <checkIfPositionIsReached+0xa0>)
 80038de:	0092      	lsls	r2, r2, #2
 80038e0:	440a      	add	r2, r1
 80038e2:	6812      	ldr	r2, [r2, #0]
 80038e4:	009b      	lsls	r3, r3, #2
 80038e6:	f107 0110 	add.w	r1, r7, #16
 80038ea:	440b      	add	r3, r1
 80038ec:	3b10      	subs	r3, #16
 80038ee:	601a      	str	r2, [r3, #0]
 80038f0:	7bfb      	ldrb	r3, [r7, #15]
 80038f2:	3301      	adds	r3, #1
 80038f4:	73fb      	strb	r3, [r7, #15]
 80038f6:	7bfb      	ldrb	r3, [r7, #15]
 80038f8:	2b02      	cmp	r3, #2
 80038fa:	d9ed      	bls.n	80038d8 <checkIfPositionIsReached+0xc>
 80038fc:	ed97 7a02 	vldr	s14, [r7, #8]
 8003900:	eddf 7a1b 	vldr	s15, [pc, #108]	; 8003970 <checkIfPositionIsReached+0xa4>
 8003904:	eeb4 7ae7 	vcmpe.f32	s14, s15
 8003908:	eef1 fa10 	vmrs	APSR_nzcv, fpscr
 800390c:	dd07      	ble.n	800391e <checkIfPositionIsReached+0x52>
 800390e:	ed97 7a02 	vldr	s14, [r7, #8]
 8003912:	eddf 7a18 	vldr	s15, [pc, #96]	; 8003974 <checkIfPositionIsReached+0xa8>
 8003916:	ee77 7a67 	vsub.f32	s15, s14, s15
 800391a:	edc7 7a02 	vstr	s15, [r7, #8]
 800391e:	2300      	movs	r3, #0
 8003920:	73fb      	strb	r3, [r7, #15]
 8003922:	e008      	b.n	8003936 <checkIfPositionIsReached+0x6a>
 8003924:	7bfa      	ldrb	r2, [r7, #15]
 8003926:	463b      	mov	r3, r7
 8003928:	4610      	mov	r0, r2
 800392a:	4619      	mov	r1, r3
 800392c:	f000 f828 	bl	8003980 <checkIfPositionIsReachedCoord>
 8003930:	7bfb      	ldrb	r3, [r7, #15]
 8003932:	3301      	adds	r3, #1
 8003934:	73fb      	strb	r3, [r7, #15]
 8003936:	7bfb      	ldrb	r3, [r7, #15]
 8003938:	2b02      	cmp	r3, #2
 800393a:	d9f3      	bls.n	8003924 <checkIfPositionIsReached+0x58>
 800393c:	4b0e      	ldr	r3, [pc, #56]	; (8003978 <checkIfPositionIsReached+0xac>)
 800393e:	781b      	ldrb	r3, [r3, #0]
 8003940:	2b00      	cmp	r3, #0
 8003942:	d10b      	bne.n	800395c <checkIfPositionIsReached+0x90>
 8003944:	4b0c      	ldr	r3, [pc, #48]	; (8003978 <checkIfPositionIsReached+0xac>)
 8003946:	785b      	ldrb	r3, [r3, #1]
 8003948:	2b00      	cmp	r3, #0
 800394a:	d107      	bne.n	800395c <checkIfPositionIsReached+0x90>
 800394c:	4b0a      	ldr	r3, [pc, #40]	; (8003978 <checkIfPositionIsReached+0xac>)
 800394e:	789b      	ldrb	r3, [r3, #2]
 8003950:	2b00      	cmp	r3, #0
 8003952:	d103      	bne.n	800395c <checkIfPositionIsReached+0x90>
 8003954:	4b09      	ldr	r3, [pc, #36]	; (800397c <checkIfPositionIsReached+0xb0>)
 8003956:	2200      	movs	r2, #0
 8003958:	709a      	strb	r2, [r3, #2]
 800395a:	e002      	b.n	8003962 <checkIfPositionIsReached+0x96>
 800395c:	4b07      	ldr	r3, [pc, #28]	; (800397c <checkIfPositionIsReached+0xb0>)
 800395e:	2201      	movs	r2, #1
 8003960:	709a      	strb	r2, [r3, #2]
 8003962:	bf00      	nop
 8003964:	3710      	adds	r7, #16
 8003966:	46bd      	mov	sp, r7
 8003968:	bd80      	pop	{r7, pc}
 800396a:	bf00      	nop
 800396c:	20014fb8 	.word	0x20014fb8
 8003970:	40490fdb 	.word	0x40490fdb
 8003974:	40c90fdb 	.word	0x40c90fdb
 8003978:	20014fec 	.word	0x20014fec
 800397c:	20014fd4 	.word	0x20014fd4

08003980 <checkIfPositionIsReachedCoord>:
 8003980:	b580      	push	{r7, lr}
 8003982:	b082      	sub	sp, #8
 8003984:	af00      	add	r7, sp, #0
 8003986:	4603      	mov	r3, r0
 8003988:	6039      	str	r1, [r7, #0]
 800398a:	71fb      	strb	r3, [r7, #7]
 800398c:	79fb      	ldrb	r3, [r7, #7]
 800398e:	4a50      	ldr	r2, [pc, #320]	; (8003ad0 <checkIfPositionIsReachedCoord+0x150>)
 8003990:	5cd3      	ldrb	r3, [r2, r3]
 8003992:	2b00      	cmp	r3, #0
 8003994:	f000 8097 	beq.w	8003ac6 <checkIfPositionIsReachedCoord+0x146>
 8003998:	79fa      	ldrb	r2, [r7, #7]
 800399a:	4b4d      	ldr	r3, [pc, #308]	; (8003ad0 <checkIfPositionIsReachedCoord+0x150>)
 800399c:	321a      	adds	r2, #26
 800399e:	f853 2022 	ldr.w	r2, [r3, r2, lsl #2]
 80039a2:	79fb      	ldrb	r3, [r7, #7]
 80039a4:	494a      	ldr	r1, [pc, #296]	; (8003ad0 <checkIfPositionIsReachedCoord+0x150>)
 80039a6:	331c      	adds	r3, #28
 80039a8:	009b      	lsls	r3, r3, #2
 80039aa:	440b      	add	r3, r1
 80039ac:	685b      	ldr	r3, [r3, #4]
 80039ae:	4610      	mov	r0, r2
 80039b0:	4619      	mov	r1, r3
 80039b2:	f7ff f953 	bl	8002c5c <checkTimeout>
 80039b6:	4603      	mov	r3, r0
 80039b8:	2b00      	cmp	r3, #0
 80039ba:	d00b      	beq.n	80039d4 <checkIfPositionIsReachedCoord+0x54>
 80039bc:	79fb      	ldrb	r3, [r7, #7]
 80039be:	4a45      	ldr	r2, [pc, #276]	; (8003ad4 <checkIfPositionIsReachedCoord+0x154>)
 80039c0:	009b      	lsls	r3, r3, #2
 80039c2:	4413      	add	r3, r2
 80039c4:	f04f 0200 	mov.w	r2, #0
 80039c8:	601a      	str	r2, [r3, #0]
 80039ca:	79fb      	ldrb	r3, [r7, #7]
 80039cc:	4a40      	ldr	r2, [pc, #256]	; (8003ad0 <checkIfPositionIsReachedCoord+0x150>)
 80039ce:	2100      	movs	r1, #0
 80039d0:	54d1      	strb	r1, [r2, r3]
 80039d2:	e079      	b.n	8003ac8 <checkIfPositionIsReachedCoord+0x148>
 80039d4:	79fb      	ldrb	r3, [r7, #7]
 80039d6:	4a3e      	ldr	r2, [pc, #248]	; (8003ad0 <checkIfPositionIsReachedCoord+0x150>)
 80039d8:	3316      	adds	r3, #22
 80039da:	009b      	lsls	r3, r3, #2
 80039dc:	4413      	add	r3, r2
 80039de:	ed93 7a00 	vldr	s14, [r3]
 80039e2:	79fb      	ldrb	r3, [r7, #7]
 80039e4:	009b      	lsls	r3, r3, #2
 80039e6:	683a      	ldr	r2, [r7, #0]
 80039e8:	4413      	add	r3, r2
 80039ea:	edd3 7a00 	vldr	s15, [r3]
 80039ee:	ee77 7a67 	vsub.f32	s15, s14, s15
 80039f2:	eeb0 7ae7 	vabs.f32	s14, s15
 80039f6:	79fb      	ldrb	r3, [r7, #7]
 80039f8:	4a37      	ldr	r2, [pc, #220]	; (8003ad8 <checkIfPositionIsReachedCoord+0x158>)
 80039fa:	009b      	lsls	r3, r3, #2
 80039fc:	4413      	add	r3, r2
 80039fe:	edd3 7a00 	vldr	s15, [r3]
 8003a02:	eeb4 7ae7 	vcmpe.f32	s14, s15
 8003a06:	eef1 fa10 	vmrs	APSR_nzcv, fpscr
 8003a0a:	d50b      	bpl.n	8003a24 <checkIfPositionIsReachedCoord+0xa4>
 8003a0c:	79fb      	ldrb	r3, [r7, #7]
 8003a0e:	4a31      	ldr	r2, [pc, #196]	; (8003ad4 <checkIfPositionIsReachedCoord+0x154>)
 8003a10:	009b      	lsls	r3, r3, #2
 8003a12:	4413      	add	r3, r2
 8003a14:	f04f 0200 	mov.w	r2, #0
 8003a18:	601a      	str	r2, [r3, #0]
 8003a1a:	79fb      	ldrb	r3, [r7, #7]
 8003a1c:	4a2c      	ldr	r2, [pc, #176]	; (8003ad0 <checkIfPositionIsReachedCoord+0x150>)
 8003a1e:	2100      	movs	r1, #0
 8003a20:	54d1      	strb	r1, [r2, r3]
 8003a22:	e051      	b.n	8003ac8 <checkIfPositionIsReachedCoord+0x148>
 8003a24:	79fb      	ldrb	r3, [r7, #7]
 8003a26:	009b      	lsls	r3, r3, #2
 8003a28:	683a      	ldr	r2, [r7, #0]
 8003a2a:	4413      	add	r3, r2
 8003a2c:	edd3 7a00 	vldr	s15, [r3]
 8003a30:	eeb0 7ae7 	vabs.f32	s14, s15
 8003a34:	79fb      	ldrb	r3, [r7, #7]
 8003a36:	4a26      	ldr	r2, [pc, #152]	; (8003ad0 <checkIfPositionIsReachedCoord+0x150>)
 8003a38:	3310      	adds	r3, #16
 8003a3a:	009b      	lsls	r3, r3, #2
 8003a3c:	4413      	add	r3, r2
 8003a3e:	edd3 7a00 	vldr	s15, [r3]
 8003a42:	eef0 7ae7 	vabs.f32	s15, s15
 8003a46:	eeb4 7ae7 	vcmpe.f32	s14, s15
 8003a4a:	eef1 fa10 	vmrs	APSR_nzcv, fpscr
 8003a4e:	d51a      	bpl.n	8003a86 <checkIfPositionIsReachedCoord+0x106>
 8003a50:	79fb      	ldrb	r3, [r7, #7]
 8003a52:	4a22      	ldr	r2, [pc, #136]	; (8003adc <checkIfPositionIsReachedCoord+0x15c>)
 8003a54:	009b      	lsls	r3, r3, #2
 8003a56:	4413      	add	r3, r2
 8003a58:	edd3 7a00 	vldr	s15, [r3]
 8003a5c:	eeb0 7ae7 	vabs.f32	s14, s15
 8003a60:	79fb      	ldrb	r3, [r7, #7]
 8003a62:	4a1b      	ldr	r2, [pc, #108]	; (8003ad0 <checkIfPositionIsReachedCoord+0x150>)
 8003a64:	3306      	adds	r3, #6
 8003a66:	009b      	lsls	r3, r3, #2
 8003a68:	4413      	add	r3, r2
 8003a6a:	edd3 7a01 	vldr	s15, [r3, #4]
 8003a6e:	eef0 7ae7 	vabs.f32	s15, s15
 8003a72:	eeb4 7ae7 	vcmpe.f32	s14, s15
